(lp0
(I5000
cnumpy.core.multiarray
scalar
p1
(cnumpy
dtype
p2
(S'f8'
p3
I0
I1
tp4
Rp5
(I3
S'<'
p6
NNNI-1
I-1
I0
tp7
bS'\x97\x04c,\x7f/\xac@'
p8
tp9
Rp10
g1
(g5
S'\x1e\x8a<"bD\xae@'
p11
tp12
Rp13
tp14
a(I6000
g1
(g5
S'\x18\xbf\xa2\x8e\xb4h\xad@'
p15
tp16
Rp17
g1
(g5
S'[\xf4\xc3@*;\xae@'
p18
tp19
Rp20
tp21
a.