(dp1
S'files'
p2
(dp3
S'fuzzy_adventure_GUI'
p4
(dp5
S'index'
p6
(dp7
S'html_filename'
p8
S'fuzzy_adventure_GUI.html'
p9
sS'name'
p10
S'fuzzy_adventure.GUI'
p11
sS'nums'
p12
ccopy_reg
_reconstructor
p13
(ccoverage.results
Numbers
p14
c__builtin__
object
p15
NtRp16
(dp17
S'n_files'
p18
I1
sS'n_branches'
p19
I0
sS'n_statements'
p20
I0
sS'n_excluded'
p21
I0
sS'n_partial_branches'
p22
I0
sS'n_missing'
p23
I0
sS'n_missing_branches'
p24
I0
sbssS'hash'
p25
S'\xb0\xc8pN\xaf>\xa0\xbaz\x144\xe0A9\xb8?'
p26
ssS'_usr_local_lib_python2_7_dist-packages_nose_proxy'
p27
(dp28
S'index'
p29
(dp30
S'html_filename'
p31
S'_usr_local_lib_python2_7_dist-packages_nose_proxy.html'
p32
sS'name'
p33
S'/usr/local/lib/python2.7/dist-packages/nose/proxy'
p34
sS'nums'
p35
g13
(g14
g15
NtRp36
(dp37
g18
I1
sg19
I0
sg20
I108
sg21
I0
sg22
I0
sg23
I66
sg24
I0
sbssS'hash'
p38
S'Y\x1e\xde\xce(;W\x1f^kC\xdf#\xa6\x17\x9b'
p39
ssS'fuzzy_adventure_query_decomposition_nlidb_term_selectors'
p40
(dp41
g6
(dp42
g8
S'fuzzy_adventure_query_decomposition_nlidb_term_selectors.html'
p43
sg10
S'fuzzy_adventure.query_decomposition.nlidb.term_selectors'
p44
sg12
g13
(g14
g15
NtRp45
(dp46
g18
I1
sg19
I0
sg20
I0
sg21
I0
sg22
I0
sg23
I0
sg24
I0
sbssg25
S'\xb0\xc8pN\xaf>\xa0\xbaz\x144\xe0A9\xb8?'
p47
ssS'django_template'
p48
(dp49
S'index'
p50
(dp51
S'html_filename'
p52
S'django_template.html'
p53
sS'name'
p54
S'django.template'
p55
sS'nums'
p56
g13
(g14
g15
NtRp57
(dp58
g18
I1
sg19
I0
sg20
I6
sg21
I0
sg22
I0
sg23
I0
sg24
I0
sbssS'hash'
p59
S'\xb6\xa0l\x13\xa8q\x87\r\xa8\xea\xdd\x99\xef\xf5k\xd3'
p60
ssS'django_utils_datastructures'
p61
(dp62
g50
(dp63
g52
S'django_utils_datastructures.html'
p64
sg54
S'django.utils.datastructures'
p65
sg56
g13
(g14
g15
NtRp66
(dp67
g18
I1
sg19
I0
sg20
I292
sg21
I0
sg22
I0
sg23
I203
sg24
I0
sbssg59
S'\xb5\xbf$\x9e\xb1\xef\xb3\xdau=\xf2\xbes\x0c\xc6\x8b'
p68
ssS'email_mime_image'
p69
(dp70
g50
(dp71
g52
S'email_mime_image.html'
p72
sg54
S'email.mime.image'
p73
sg56
g13
(g14
g15
NtRp74
(dp75
g18
I1
sg19
I0
sg20
I14
sg21
I0
sg22
I0
sg23
I14
sg24
I0
sbssg59
S'\xd0\xc4\xf5\x15\xb4N#\x94^\xb1\xbd\xab{\xa2C('
p76
ssS'django_utils_baseconv'
p77
(dp78
g50
(dp79
g52
S'django_utils_baseconv.html'
p80
sg54
S'django.utils.baseconv'
p81
sg56
g13
(g14
g15
NtRp82
(dp83
g18
I1
sg19
I0
sg20
I48
sg21
I0
sg22
I0
sg23
I25
sg24
I0
sbssg59
S'1\xe8\xf6U\x98C\xe4\x99\x17*\xe3\xe1\x86\xeej\x0b'
p84
ssS'django_core_files_utils'
p85
(dp86
g50
(dp87
g52
S'django_core_files_utils.html'
p88
sg54
S'django.core.files.utils'
p89
sg56
g13
(g14
g15
NtRp90
(dp91
g18
I1
sg19
I0
sg20
I19
sg21
I0
sg22
I0
sg23
I1
sg24
I0
sbssg59
S'\x91@)\xe4(\x81\xd6\xb8\x9b\x16\xc4\xeeh\x11e\xff'
p92
ssS'pytz_tzfile'
p93
(dp94
g50
(dp95
g52
S'pytz_tzfile.html'
p96
sg54
S'pytz.tzfile'
p97
sg56
g13
(g14
g15
NtRp98
(dp99
g18
I1
sg19
I0
sg20
I73
sg21
I0
sg22
I0
sg23
I65
sg24
I0
sbssg59
S'^pY\xaa\xdfZP\xb1\xf1\xbd\xaa\x02\x1b\x89\x1f\xa1'
p100
ssS'django_core_files_temp'
p101
(dp102
g50
(dp103
g52
S'django_core_files_temp.html'
p104
sg54
S'django.core.files.temp'
p105
sg56
g13
(g14
g15
NtRp106
(dp107
g18
I1
sg19
I0
sg20
I28
sg21
I0
sg22
I0
sg23
I21
sg24
I0
sbssg59
S'\x14%Z\x18\x8e\x18K\xa3Y\x1f\xa7\x988\xdc)X'
p108
ssS'simplejson_scanner'
p109
(dp110
g50
(dp111
g52
S'simplejson_scanner.html'
p112
sg54
S'simplejson.scanner'
p113
sg56
g13
(g14
g15
NtRp114
(dp115
g18
I1
sg19
I0
sg20
I60
sg21
I0
sg22
I0
sg23
I50
sg24
I0
sbssg59
S'\xa1\xda\x8e\xf4\x94Ue\x16g\xb3\x8d\x98\xfe\xdaw\x03'
p116
ssS'django_views'
p117
(dp118
g50
(dp119
g52
S'django_views.html'
p120
sg54
S'django.views'
p121
sg56
g13
(g14
g15
NtRp122
(dp123
g18
I1
sg19
I0
sg20
I0
sg21
I0
sg22
I0
sg23
I0
sg24
I0
sbssg59
S'\xb0\xc8pN\xaf>\xa0\xbaz\x144\xe0A9\xb8?'
p124
ssS'fuzzy_adventure_external'
p125
(dp126
g6
(dp127
g8
S'fuzzy_adventure_external.html'
p128
sg10
S'fuzzy_adventure.external'
p129
sg12
g13
(g14
g15
NtRp130
(dp131
g18
I1
sg19
I0
sg20
I0
sg21
I0
sg22
I0
sg23
I0
sg24
I0
sbssg25
S'\xb0\xc8pN\xaf>\xa0\xbaz\x144\xe0A9\xb8?'
p132
ssS'email_utils'
p133
(dp134
g50
(dp135
g52
S'email_utils.html'
p136
sg54
S'email.utils'
p137
sg56
g13
(g14
g15
NtRp138
(dp139
g18
I1
sg19
I0
sg20
I155
sg21
I0
sg22
I0
sg23
I155
sg24
I0
sbssg59
S'0L\xea\xbc\xda]\x15e*\x96\xf1\xcf\xae\x8e\xfd\x93'
p140
ssS'simplejson_decoder'
p141
(dp142
g50
(dp143
g52
S'simplejson_decoder.html'
p144
sg54
S'simplejson.decoder'
p145
sg56
g13
(g14
g15
NtRp146
(dp147
g18
I1
sg19
I0
sg20
I238
sg21
I0
sg22
I0
sg23
I190
sg24
I0
sbssg59
S'\x11ue\x06\t\x9f\xd6\xbb4\x7fz\x85\xcd\x14Y%'
p148
ssS'django_core_files_base'
p149
(dp150
g50
(dp151
g52
S'django_core_files_base.html'
p152
sg54
S'django.core.files.base'
p153
sg56
g13
(g14
g15
NtRp154
(dp155
g18
I1
sg19
I0
sg20
I90
sg21
I0
sg22
I0
sg23
I59
sg24
I0
sbssg59
S'w\x89\xd9X\xe9\xd8\xac\x9b\xd1\xb9\xbc\xa3\xe5\xa3\xa1x'
p156
ssS'django_http_utils'
p157
(dp158
g50
(dp159
g52
S'django_http_utils.html'
p160
sg54
S'django.http.utils'
p161
sg56
g13
(g14
g15
NtRp162
(dp163
g18
I1
sg19
I0
sg20
I39
sg21
I0
sg22
I0
sg23
I35
sg24
I0
sbssg59
S"\xbb\xc3'\xa8C\x18g\x9cz\x03V\xe9i\xd4'Y"
p164
ssS'_usr_local_lib_python2_7_dist-packages_nose_plugins_errorclass'
p165
(dp166
g29
(dp167
g31
S'_usr_local_lib_python2_7_dist-packages_nose_plugins_errorclass.html'
p168
sg33
S'/usr/local/lib/python2.7/dist-packages/nose/plugins/errorclass'
p169
sg35
g13
(g14
g15
NtRp170
(dp171
g18
I1
sg19
I0
sg20
I65
sg21
I0
sg22
I0
sg23
I55
sg24
I0
sbssg38
S';\xf6\xf9\x15\xbd\xc3\xd5\xda\xad\xea\xe7~\xd6\xb3{\x11'
p172
ssS'_usr_local_lib_python2_7_dist-packages_nose_plugins_capture'
p173
(dp174
g29
(dp175
g31
S'_usr_local_lib_python2_7_dist-packages_nose_plugins_capture.html'
p176
sg33
S'/usr/local/lib/python2.7/dist-packages/nose/plugins/capture'
p177
sg35
g13
(g14
g15
NtRp178
(dp179
g18
I1
sg19
I0
sg20
I66
sg21
I0
sg22
I0
sg23
I52
sg24
I0
sbssg38
S'\xb2o\x0e\xa3ey<\xff"\xe7\t\x85\xf8y\xcc\xf5'
p180
ssS'encodings_ascii'
p181
(dp182
g50
(dp183
g52
S'encodings_ascii.html'
p184
sg54
S'encodings.ascii'
p185
sg56
g13
(g14
g15
NtRp186
(dp187
g18
I1
sg19
I0
sg20
I19
sg21
I0
sg22
I0
sg23
I19
sg24
I0
sbssg59
S'jq\xb2\x8ds\xb7T\xee\xba\xb3\xb3\x99\x94\xaa\x94\xea'
p188
ssS'fuzzy_adventure_hana'
p189
(dp190
g6
(dp191
g8
S'fuzzy_adventure_hana.html'
p192
sg10
S'fuzzy_adventure.hana'
p193
sg12
g13
(g14
g15
NtRp194
(dp195
g18
I1
sg19
I0
sg20
I0
sg21
I0
sg22
I0
sg23
I0
sg24
I0
sbssg25
S'\xb0\xc8pN\xaf>\xa0\xbaz\x144\xe0A9\xb8?'
p196
ssS'django_http_multipartparser'
p197
(dp198
g50
(dp199
g52
S'django_http_multipartparser.html'
p200
sg54
S'django.http.multipartparser'
p201
sg56
g13
(g14
g15
NtRp202
(dp203
g18
I1
sg19
I0
sg20
I337
sg21
I0
sg22
I0
sg23
I288
sg24
I0
sbssg59
S'\xd2\xb9 \x03\xe5*`\xbd*\x88\xd9I\x92\xb4~\xbb'
p204
ssS'django_dispatch'
p205
(dp206
g50
(dp207
g52
S'django_dispatch.html'
p208
sg54
S'django.dispatch'
p209
sg56
g13
(g14
g15
NtRp210
(dp211
g18
I1
sg19
I0
sg20
I1
sg21
I0
sg22
I0
sg23
I0
sg24
I0
sbssg59
S'\xe9$\xa4\xf3k\xc7$G\xbe^\x9e5~A\x94\xd1'
p212
ssS'SocketServer'
p213
(dp214
g50
(dp215
g52
S'SocketServer.html'
p216
sg54
g213
sg56
g13
(g14
g15
NtRp217
(dp218
g18
I1
sg19
I0
sg20
I234
sg21
I0
sg22
I0
sg23
I234
sg24
I0
sbssg59
S'|\x0f\xccsFe\xabn\xad\x17?^\xfc\x08\x9c\xcc'
p219
ssS'django_core_handlers'
p220
(dp221
g50
(dp222
g52
S'django_core_handlers.html'
p223
sg54
S'django.core.handlers'
p224
sg56
g13
(g14
g15
NtRp225
(dp226
g18
I1
sg19
I0
sg20
I0
sg21
I0
sg22
I0
sg23
I0
sg24
I0
sbssg59
S'\xb0\xc8pN\xaf>\xa0\xbaz\x144\xe0A9\xb8?'
p227
ssS'django_core_files_uploadedfile'
p228
(dp229
g50
(dp230
g52
S'django_core_files_uploadedfile.html'
p231
sg54
S'django.core.files.uploadedfile'
p232
sg56
g13
(g14
g15
NtRp233
(dp234
g18
I1
sg19
I0
sg20
I63
sg21
I0
sg22
I0
sg23
I34
sg24
I0
sbssg59
S'yv\x0b\xbdw\xa4\xc6\xdf\xafC\xedY\xae\xd2\xc2\xda'
p235
ssS'django_dispatch_dispatcher'
p236
(dp237
g50
(dp238
g52
S'django_dispatch_dispatcher.html'
p239
sg54
S'django.dispatch.dispatcher'
p240
sg56
g13
(g14
g15
NtRp241
(dp242
g18
I1
sg19
I0
sg20
I101
sg21
I0
sg22
I0
sg23
I82
sg24
I0
sbssg59
S'\x96\xc6Q\xaaL\xefx\xf0\x14\xa1;ec\xfd\xe8\x05'
p243
ssS'email_parser'
p244
(dp245
g50
(dp246
g52
S'email_parser.html'
p247
sg54
S'email.parser'
p248
sg56
g13
(g14
g15
NtRp249
(dp250
g18
I1
sg19
I0
sg20
I44
sg21
I0
sg22
I0
sg23
I44
sg24
I0
sbssg59
S'\xeb\x9b\xb0\xbd"\xf9\xae+\xfc\x9dQ\xdf\x97\xa4*\x92'
p251
ssS'email_mime_multipart'
p252
(dp253
g50
(dp254
g52
S'email_mime_multipart.html'
p255
sg54
S'email.mime.multipart'
p256
sg56
g13
(g14
g15
NtRp257
(dp258
g18
I1
sg19
I0
sg20
I12
sg21
I0
sg22
I0
sg23
I12
sg24
I0
sbssg59
S'\xa6q\xc9\x84\xda\xca}!(\x01\x17\x94\xa5\xda\x07\xb3'
p259
ssS'_usr_local_lib_python2_7_dist-packages_nose_failure'
p260
(dp261
g29
(dp262
g31
S'_usr_local_lib_python2_7_dist-packages_nose_failure.html'
p263
sg33
S'/usr/local/lib/python2.7/dist-packages/nose/failure'
p264
sg35
g13
(g14
g15
NtRp265
(dp266
g18
I1
sg19
I0
sg20
I24
sg21
I0
sg22
I0
sg23
I15
sg24
I0
sbssg38
S'2&\xc2\x12\xfco\xda\x85 A>\x19\xc7Iv\x8c'
p267
ssS'email_mime_text'
p268
(dp269
g50
(dp270
g52
S'email_mime_text.html'
p271
sg54
S'email.mime.text'
p272
sg56
g13
(g14
g15
NtRp273
(dp274
g18
I1
sg19
I0
sg20
I8
sg21
I0
sg22
I0
sg23
I8
sg24
I0
sbssg59
S'4\x034Gx\xf6\xf7-l\xaf\x16\x84\xfas@p'
p275
ssS'django_core_mail_message'
p276
(dp277
g50
(dp278
g52
S'django_core_mail_message.html'
p279
sg54
S'django.core.mail.message'
p280
sg56
g13
(g14
g15
NtRp281
(dp282
g18
I1
sg19
I0
sg20
I210
sg21
I0
sg22
I0
sg23
I157
sg24
I0
sbssg59
S'\x05\xd4\xb5\xcf/\xd7O 6\xd2\x14\xcfYa\x0eS'
p283
ssS'decimal'
p284
(dp285
g50
(dp286
g52
S'decimal.html'
p287
sg54
g284
sg56
g13
(g14
g15
NtRp288
(dp289
g18
I1
sg19
I0
sg20
I2486
sg21
I0
sg22
I0
sg23
I2486
sg24
I0
sbssg59
S'\xb0\xdb#\xeb\xa2\x92\xe9\xad\xe4f\xc3=e\xb5\xb0\xc1'
p290
ssS'django_template_defaulttags'
p291
(dp292
g50
(dp293
g52
S'django_template_defaulttags.html'
p294
sg54
S'django.template.defaulttags'
p295
sg56
g13
(g14
g15
NtRp296
(dp297
g18
I1
sg19
I0
sg20
I613
sg21
I0
sg22
I0
sg23
I502
sg24
I0
sbssg59
S'g\xf1\x83\xf1&T\x08e2f\x06\xb2*A@\x87'
p298
ssS'_usr_local_lib_python2_7_dist-packages_nose_plugins_logcapture'
p299
(dp300
g29
(dp301
g31
S'_usr_local_lib_python2_7_dist-packages_nose_plugins_logcapture.html'
p302
sg33
S'/usr/local/lib/python2.7/dist-packages/nose/plugins/logcapture'
p303
sg35
g13
(g14
g15
NtRp304
(dp305
g18
I1
sg19
I0
sg20
I125
sg21
I0
sg22
I0
sg23
I110
sg24
I0
sbssg38
S'4\xda\xcdW:_b\x9d\xc9\xb5\x95:A\xa4\xae\xfe'
p306
ssS'email_message'
p307
(dp308
g50
(dp309
g52
S'email_message.html'
p310
sg54
S'email.message'
p311
sg56
g13
(g14
g15
NtRp312
(dp313
g18
I1
sg19
I0
sg20
I346
sg21
I0
sg22
I0
sg23
I346
sg24
I0
sbssg59
S'V\x18iW\xc4\xabDo\x7f\xeeo\xad^!?='
p314
ssS'django_core_exceptions'
p315
(dp316
g50
(dp317
g52
S'django_core_exceptions.html'
p318
sg54
S'django.core.exceptions'
p319
sg56
g13
(g14
g15
NtRp320
(dp321
g18
I1
sg19
I0
sg20
I48
sg21
I0
sg22
I0
sg23
I24
sg24
I0
sbssg59
S'a\xe3\xad\nKH\xdek\xda\xd5\x03\x9fP\x15\xc6\xc6'
p322
ssS'quopri'
p323
(dp324
g50
(dp325
g52
S'quopri.html'
p326
sg54
g323
sg56
g13
(g14
g15
NtRp327
(dp328
g18
I1
sg19
I0
sg20
I162
sg21
I0
sg22
I0
sg23
I162
sg24
I0
sbssg59
S"\x91\xbapO4\x97)\x84\xfc\x15\x05\x9f\x81\xb7'\xff"
p329
ssS'django_conf_global_settings'
p330
(dp331
g50
(dp332
g52
S'django_conf_global_settings.html'
p333
sg54
S'django.conf.global_settings'
p334
sg56
g13
(g14
g15
NtRp335
(dp336
g18
I1
sg19
I0
sg20
I118
sg21
I0
sg22
I0
sg23
I0
sg24
I0
sbssg59
S'\xba\x06~\xde\x10?\xd3q\xeb#i&\x19H\xe2l'
p337
ssS'json_scanner'
p338
(dp339
g6
(dp340
g8
S'json_scanner.html'
p341
sg10
S'json.scanner'
p342
sg12
g13
(g14
g15
NtRp343
(dp344
g18
I1
sg19
I0
sg20
I52
sg21
I0
sg22
I0
sg23
I52
sg24
I0
sbssg25
S'$\xcb\xac\xc2\x18\x18\xa3\x18a\xf17\x99\xb4\xc6_e'
p345
ssS'email_mime_nonmultipart'
p346
(dp347
g50
(dp348
g52
S'email_mime_nonmultipart.html'
p349
sg54
S'email.mime.nonmultipart'
p350
sg56
g13
(g14
g15
NtRp351
(dp352
g18
I1
sg19
I0
sg20
I7
sg21
I0
sg22
I0
sg23
I7
sg24
I0
sbssg59
S"\x8a\x8ep\x94\xe3pq\xbc\xd6\xb6\xde'h!\x1c\xfc"
p353
ssS'fuzzy_adventure_database_transactions'
p354
(dp355
g50
(dp356
g52
S'fuzzy_adventure_database_transactions.html'
p357
sg54
S'fuzzy_adventure.database.transactions'
p358
sg56
g13
(g14
g15
NtRp359
(dp360
g18
I1
sg19
I0
sg20
I0
sg21
I0
sg22
I0
sg23
I0
sg24
I0
sbssg59
S'\xb0\xc8pN\xaf>\xa0\xbaz\x144\xe0A9\xb8?'
p361
ssS'django_utils_simplejson'
p362
(dp363
g50
(dp364
g52
S'django_utils_simplejson.html'
p365
sg54
S'django.utils.simplejson'
p366
sg56
g13
(g14
g15
NtRp367
(dp368
g18
I1
sg19
I0
sg20
I54
sg21
I0
sg22
I0
sg23
I44
sg24
I0
sbssg59
S'\xe8\x0e\x0bp\xde%V\x0e\xfc\xa8X\x1f\xa0\x0f\xcc\xdb'
p369
ssS'fuzzy_adventure_context_based_data'
p370
(dp371
g6
(dp372
g8
S'fuzzy_adventure_context_based_data.html'
p373
sg10
S'fuzzy_adventure.context_based_data'
p374
sg12
g13
(g14
g15
NtRp375
(dp376
g18
I1
sg19
I0
sg20
I0
sg21
I0
sg22
I0
sg23
I0
sg24
I0
sbssg25
S'\xb0\xc8pN\xaf>\xa0\xbaz\x144\xe0A9\xb8?'
p377
ssS'email_mime_base'
p378
(dp379
g50
(dp380
g52
S'email_mime_base.html'
p381
sg54
S'email.mime.base'
p382
sg56
g13
(g14
g15
NtRp383
(dp384
g18
I1
sg19
I0
sg20
I9
sg21
I0
sg22
I0
sg23
I9
sg24
I0
sbssg59
S'\xc7g\x00\xf1\xe9\xf5\xd1\x88\x11\xbb\x1c\xe4[}X\x8d'
p385
ssS'fuzzy_adventure_servers'
p386
(dp387
g6
(dp388
g8
S'fuzzy_adventure_servers.html'
p389
sg10
S'fuzzy_adventure.servers'
p390
sg12
g13
(g14
g15
NtRp391
(dp392
g18
I1
sg19
I0
sg20
I0
sg21
I0
sg22
I0
sg23
I0
sg24
I0
sbssg25
S'\xb0\xc8pN\xaf>\xa0\xbaz\x144\xe0A9\xb8?'
p393
ssS'calendar'
p394
(dp395
g50
(dp396
g52
S'calendar.html'
p397
sg54
g394
sg56
g13
(g14
g15
NtRp398
(dp399
g18
I1
sg19
I0
sg20
I381
sg21
I0
sg22
I0
sg23
I381
sg24
I0
sbssg59
S'\xa7\nu\xee\x9b\x82\xf4\x99\x1c\xd9m\x01\xce\x89\xbbd'
p400
ssS'pytz_tzinfo'
p401
(dp402
g50
(dp403
g52
S'pytz_tzinfo.html'
p404
sg54
S'pytz.tzinfo'
p405
sg56
g13
(g14
g15
NtRp406
(dp407
g18
I1
sg19
I0
sg20
I157
sg21
I0
sg22
I0
sg23
I103
sg24
I0
sbssg59
S'\x1aXT}\xe6\xd2\xb5$\xbe\xed3z\xf6\xf9o-'
p408
ssS'django_dispatch_saferef'
p409
(dp410
g50
(dp411
g52
S'django_dispatch_saferef.html'
p412
sg54
S'django.dispatch.saferef'
p413
sg56
g13
(g14
g15
NtRp414
(dp415
g18
I1
sg19
I0
sg20
I80
sg21
I0
sg22
I0
sg23
I62
sg24
I0
sbssg59
S'\x80u\xf3\x93\x1d\x01\xf8m\xa9^\n\xe7cW\xae\xec'
p416
ssS'django_template_defaultfilters'
p417
(dp418
g50
(dp419
g52
S'django_template_defaultfilters.html'
p420
sg54
S'django.template.defaultfilters'
p421
sg56
g13
(g14
g15
NtRp422
(dp423
g18
I1
sg19
I0
sg20
I457
sg21
I0
sg22
I0
sg23
I326
sg24
I0
sbssg59
S'\xb8\xee\x1e9\xb8a\x93\xb8\xec\xec\xd2\x124A\xc8&'
p424
ssS'fuzzy_adventure_query_decomposition_nlidb'
p425
(dp426
g6
(dp427
g8
S'fuzzy_adventure_query_decomposition_nlidb.html'
p428
sg10
S'fuzzy_adventure.query_decomposition.nlidb'
p429
sg12
g13
(g14
g15
NtRp430
(dp431
g18
I1
sg19
I0
sg20
I0
sg21
I0
sg22
I0
sg23
I0
sg24
I0
sbssg25
S'\xb0\xc8pN\xaf>\xa0\xbaz\x144\xe0A9\xb8?'
p432
ssS'django_template_smartif'
p433
(dp434
g50
(dp435
g52
S'django_template_smartif.html'
p436
sg54
S'django.template.smartif'
p437
sg56
g13
(g14
g15
NtRp438
(dp439
g18
I1
sg19
I0
sg20
I104
sg21
I0
sg22
I0
sg23
I61
sg24
I0
sbssg59
S'\xdd)I\xf1\xfb\xd4\xfe\x86hd0\x89\x8a|\xf9\x8a'
p440
ssS'_usr_local_lib_python2_7_dist-packages_nose_result'
p441
(dp442
g29
(dp443
g31
S'_usr_local_lib_python2_7_dist-packages_nose_result.html'
p444
sg33
S'/usr/local/lib/python2.7/dist-packages/nose/result'
p445
sg35
g13
(g14
g15
NtRp446
(dp447
g18
I1
sg19
I0
sg20
I131
sg21
I0
sg22
I0
sg23
I98
sg24
I0
sbssg38
S'\x06\xb0\x83\xfa\xd9c\xc8\x00\xab\x85\x8bs\xd7A\x12\x83'
p448
ssS'django_contrib'
p449
(dp450
g50
(dp451
g52
S'django_contrib.html'
p452
sg54
S'django.contrib'
p453
sg56
g13
(g14
g15
NtRp454
(dp455
g18
I1
sg19
I0
sg20
I0
sg21
I0
sg22
I0
sg23
I0
sg24
I0
sbssg59
S'\xb0\xc8pN\xaf>\xa0\xbaz\x144\xe0A9\xb8?'
p456
ssS'email_base64mime'
p457
(dp458
g50
(dp459
g52
S'email_base64mime.html'
p460
sg54
S'email.base64mime'
p461
sg56
g13
(g14
g15
NtRp462
(dp463
g18
I1
sg19
I0
sg20
I55
sg21
I0
sg22
I0
sg23
I55
sg24
I0
sbssg59
S'\xdc\x96$s"\xb8\x90\x9b\x8a\x10\xb6@\x01\xd1\x99\x80'
p464
ssS'django_utils_dateformat'
p465
(dp466
g50
(dp467
g52
S'django_utils_dateformat.html'
p468
sg54
S'django.utils.dateformat'
p469
sg56
g13
(g14
g15
NtRp470
(dp471
g18
I1
sg19
I0
sg20
I179
sg21
I0
sg22
I0
sg23
I119
sg24
I0
sbssg59
S'\xdc\xcf>\x08@dl\xf9\xb7\x16\x8bmQ\x05\x80?'
p472
ssS'email'
p473
(dp474
g50
(dp475
g52
S'email.html'
p476
sg54
g473
sg56
g13
(g14
g15
NtRp477
(dp478
g18
I1
sg19
I0
sg20
I30
sg21
I0
sg22
I0
sg23
I30
sg24
I0
sbssg59
S'\xdd\xf4\x97\xdd\x85!\x1e\x9f\xfb[\xb1\xda\x83H\xabw'
p479
ssS'cgi'
p480
(dp481
g50
(dp482
g52
S'cgi.html'
p483
sg54
g480
sg56
g13
(g14
g15
NtRp484
(dp485
g18
I1
sg19
I0
sg20
I578
sg21
I0
sg22
I0
sg23
I578
sg24
I0
sbssg59
S'\xf3\xb2\xa5\x15L\xb1\xcf\x8f>\x93\x19\x12\xfe\xf0\xb2\x17'
p486
ssS'_usr_local_lib_python2_7_dist-packages_nose_case'
p487
(dp488
g29
(dp489
g31
S'_usr_local_lib_python2_7_dist-packages_nose_case.html'
p490
sg33
S'/usr/local/lib/python2.7/dist-packages/nose/case'
p491
sg35
g13
(g14
g15
NtRp492
(dp493
g18
I1
sg19
I0
sg20
I204
sg21
I0
sg22
I0
sg23
I152
sg24
I0
sbssg38
S'.\xdbNT\xdb\xc8\xb6y\xb3\xe4_\x97\x1d;\x95j'
p494
ssS'django_utils'
p495
(dp496
g50
(dp497
g52
S'django_utils.html'
p498
sg54
S'django.utils'
p499
sg56
g13
(g14
g15
NtRp500
(dp501
g18
I1
sg19
I0
sg20
I0
sg21
I0
sg22
I0
sg23
I0
sg24
I0
sbssg59
S'\xb0\xc8pN\xaf>\xa0\xbaz\x144\xe0A9\xb8?'
p502
ssS'django_conf'
p503
(dp504
g50
(dp505
g52
S'django_conf.html'
p506
sg54
S'django.conf'
p507
sg56
g13
(g14
g15
NtRp508
(dp509
g18
I1
sg19
I0
sg20
I85
sg21
I0
sg22
I0
sg23
I45
sg24
I0
sbssg59
S'u\x16\x99^\xbc\x9b\xcf&\xa4Y\x94,^\x14Q\xef'
p510
ssS'django_utils_log'
p511
(dp512
g50
(dp513
g52
S'django_utils_log.html'
p514
sg54
S'django.utils.log'
p515
sg56
g13
(g14
g15
NtRp516
(dp517
g18
I1
sg19
I0
sg20
I56
sg21
I0
sg22
I0
sg23
I34
sg24
I0
sbssg59
S'\xdfH-~\xea\x95\n\xb1h\xe5\x87\xddQ<\xe1\xf1'
p518
ssS'django_utils_html'
p519
(dp520
g50
(dp521
g52
S'django_utils_html.html'
p522
sg54
S'django.utils.html'
p523
sg56
g13
(g14
g15
NtRp524
(dp525
g18
I1
sg19
I0
sg20
I133
sg21
I0
sg22
I0
sg23
I89
sg24
I0
sbssg59
S'\x16y \nh\x14<P\x87\x1b0\x11\xeeh]\xec'
p526
ssS'json_decoder'
p527
(dp528
g6
(dp529
g8
S'json_decoder.html'
p530
sg10
S'json.decoder'
p531
sg12
g13
(g14
g15
NtRp532
(dp533
g18
I1
sg19
I0
sg20
I216
sg21
I0
sg22
I0
sg23
I216
sg24
I0
sbssg25
S'\xa0M\xdf|\xe0\xbaD\x9ab\xf6Z\xb2+uv\x87'
p534
ssS'email_encoders'
p535
(dp536
g50
(dp537
g52
S'email_encoders.html'
p538
sg54
S'email.encoders'
p539
sg56
g13
(g14
g15
NtRp540
(dp541
g18
I1
sg19
I0
sg20
I36
sg21
I0
sg22
I0
sg23
I36
sg24
I0
sbssg59
S'\x9b\x93\x96\xfeCq\x9e\xb3\xb9\x1a\xb6\x0bXC\xde\xc6'
p542
ssS'django_utils_formats'
p543
(dp544
g50
(dp545
g52
S'django_utils_formats.html'
p546
sg54
S'django.utils.formats'
p547
sg56
g13
(g14
g15
NtRp548
(dp549
g18
I1
sg19
I0
sg20
I108
sg21
I0
sg22
I0
sg23
I86
sg24
I0
sbssg59
S'oL\xe7<\x94/\x9d\xff\xbe*\xbf_\x1b\xaf\xa4\xe6'
p550
ssS'simplejson_encoder'
p551
(dp552
g50
(dp553
g52
S'simplejson_encoder.html'
p554
sg54
S'simplejson.encoder'
p555
sg56
g13
(g14
g15
NtRp556
(dp557
g18
I1
sg19
I0
sg20
I271
sg21
I0
sg22
I0
sg23
I231
sg24
I0
sbssg59
S'.\x96\xe56$\x90+U\x89\x9f4\xcf\x0f\xb9$ '
p558
ssS'_usr_local_lib_python2_7_dist-packages_nose_plugins_cover'
p559
(dp560
g29
(dp561
g31
S'_usr_local_lib_python2_7_dist-packages_nose_plugins_cover.html'
p562
sg33
S'/usr/local/lib/python2.7/dist-packages/nose/plugins/cover'
p563
sg35
g13
(g14
g15
NtRp564
(dp565
g18
I1
sg19
I0
sg20
I138
sg21
I0
sg22
I0
sg23
I136
sg24
I0
sbssg38
S'kE\xfe\xcc\xf7\xf0m\x05K\xf4\x88\xb1\x17\xc90\xae'
p566
ssS'email_mime_audio'
p567
(dp568
g50
(dp569
g52
S'email_mime_audio.html'
p570
sg54
S'email.mime.audio'
p571
sg56
g13
(g14
g15
NtRp572
(dp573
g18
I1
sg19
I0
sg20
I24
sg21
I0
sg22
I0
sg23
I24
sg24
I0
sbssg59
S'c\xb0\x1c\x86\x8a\x02\x12\xc0\x15z\xa6\x1f\xf4hro'
p574
ssS'_usr_local_lib_python2_7_dist-packages_nose_core'
p575
(dp576
g29
(dp577
g31
S'_usr_local_lib_python2_7_dist-packages_nose_core.html'
p578
sg33
S'/usr/local/lib/python2.7/dist-packages/nose/core'
p579
sg35
g13
(g14
g15
NtRp580
(dp581
g18
I1
sg19
I0
sg20
I162
sg21
I0
sg22
I0
sg23
I140
sg24
I0
sbssg38
S'\xd4\xc9\x15\x97{2\xe6\x97i\xb8\xb9\x8a\x95R\x12+'
p582
ssS'encodings_hex_codec'
p583
(dp584
g6
(dp585
g8
S'encodings_hex_codec.html'
p586
sg10
S'encodings.hex_codec'
p587
sg12
g13
(g14
g15
NtRp588
(dp589
g18
I1
sg19
I0
sg20
I28
sg21
I0
sg22
I0
sg23
I28
sg24
I0
sbssg25
S'\xa4g4d\xd88\xd4\x16\xeb\xfbb\xac\xbc\xa1h\xc6'
p590
ssS'django_utils_datetime_safe'
p591
(dp592
g50
(dp593
g52
S'django_utils_datetime_safe.html'
p594
sg54
S'django.utils.datetime_safe'
p595
sg56
g13
(g14
g15
NtRp596
(dp597
g18
I1
sg19
I0
sg20
I56
sg21
I0
sg22
I0
sg23
I42
sg24
I0
sbssg59
S'\xcf\x16v\x83I\x1c\x906G\x91=\xec\x94\xfdf\xbe'
p598
ssS'django_utils_safestring'
p599
(dp600
g50
(dp601
g52
S'django_utils_safestring.html'
p602
sg54
S'django.utils.safestring'
p603
sg56
g13
(g14
g15
NtRp604
(dp605
g18
I1
sg19
I0
sg20
I57
sg21
I0
sg22
I0
sg23
I34
sg24
I0
sbssg59
S'\xd9\xb2:\x1fMa\x91\xa8\x85z\xd1\xe9\xaf\xabrM'
p606
ssS'email__parseaddr'
p607
(dp608
g50
(dp609
g52
S'email__parseaddr.html'
p610
sg54
S'email._parseaddr'
p611
sg56
g13
(g14
g15
NtRp612
(dp613
g18
I1
sg19
I0
sg20
I302
sg21
I0
sg22
I0
sg23
I302
sg24
I0
sbssg59
S'\xc11l\xe2\x9d.\xe7\x8b\x84Ee\xd8\xcdA{F'
p614
ssS'django_utils_regex_helper'
p615
(dp616
g50
(dp617
g52
S'django_utils_regex_helper.html'
p618
sg54
S'django.utils.regex_helper'
p619
sg56
g13
(g14
g15
NtRp620
(dp621
g18
I1
sg19
I0
sg20
I185
sg21
I0
sg22
I0
sg23
I175
sg24
I0
sbssg59
S'2\x17q\n3`<\x0f\xce\x8az\xb4\xd1\xc7s7'
p622
ssS'_usr_local_lib_python2_7_dist-packages_nose_importer'
p623
(dp624
g29
(dp625
g31
S'_usr_local_lib_python2_7_dist-packages_nose_importer.html'
p626
sg33
S'/usr/local/lib/python2.7/dist-packages/nose/importer'
p627
sg35
g13
(g14
g15
NtRp628
(dp629
g18
I1
sg19
I0
sg20
I101
sg21
I0
sg22
I0
sg23
I88
sg24
I0
sbssg38
S'`<\x95\xac\x18\xb4!\xb7\xf7\\E\xd9\xe0s\xa9\xf7'
p630
ssS'django_utils_tzinfo'
p631
(dp632
g50
(dp633
g52
S'django_utils_tzinfo.html'
p634
sg54
S'django.utils.tzinfo'
p635
sg56
g13
(g14
g15
NtRp636
(dp637
g18
I1
sg19
I0
sg20
I52
sg21
I0
sg22
I0
sg23
I34
sg24
I0
sbssg59
S'J\x85\xf4\xb5CA45\x13xif\xcd\x822M'
p638
ssS'django_template_context'
p639
(dp640
g50
(dp641
g52
S'django_template_context.html'
p642
sg54
S'django.template.context'
p643
sg56
g13
(g14
g15
NtRp644
(dp645
g18
I1
sg19
I0
sg20
I111
sg21
I0
sg22
I0
sg23
I78
sg24
I0
sbssg59
S"\x9b\xe5\x82$\xa9\x97\xdeD\x9f'6\n\xa2\xdcU\xb5"
p646
ssS'django_utils_numberformat'
p647
(dp648
g50
(dp649
g52
S'django_utils_numberformat.html'
p650
sg54
S'django.utils.numberformat'
p651
sg56
g13
(g14
g15
NtRp652
(dp653
g18
I1
sg19
I0
sg20
I31
sg21
I0
sg22
I0
sg23
I28
sg24
I0
sbssg59
S't\x93m\x81b\xf9\x03K\xc5\xb4a\xde\xfff \xd7'
p654
ssS'fuzzy_adventure_database_builder_old'
p655
(dp656
g6
(dp657
g8
S'fuzzy_adventure_database_builder_old.html'
p658
sg10
S'fuzzy_adventure.database_builder.old'
p659
sg12
g13
(g14
g15
NtRp660
(dp661
g18
I1
sg19
I0
sg20
I0
sg21
I0
sg22
I0
sg23
I0
sg24
I0
sbssg25
S'\xb0\xc8pN\xaf>\xa0\xbaz\x144\xe0A9\xb8?'
p662
ssS'email_header'
p663
(dp664
g50
(dp665
g52
S'email_header.html'
p666
sg54
S'email.header'
p667
sg56
g13
(g14
g15
NtRp668
(dp669
g18
I1
sg19
I0
sg20
I235
sg21
I0
sg22
I0
sg23
I235
sg24
I0
sbssg59
S'\xc5\xbe\xd0\xa6\xbf\xb90`\t\xa6\x06\xa5\x05\x9c\xd4\x7f'
p670
ssS'django_utils_timezone'
p671
(dp672
g50
(dp673
g52
S'django_utils_timezone.html'
p674
sg54
S'django.utils.timezone'
p675
sg56
g13
(g14
g15
NtRp676
(dp677
g18
I1
sg19
I0
sg20
I110
sg21
I0
sg22
I0
sg23
I70
sg24
I0
sbssg59
S'T4\rH\xb3W\x84}*v/\x16\xdbEL\xc8'
p678
ssS'fuzzy_adventure_query_decomposition'
p679
(dp680
g6
(dp681
g8
S'fuzzy_adventure_query_decomposition.html'
p682
sg10
S'fuzzy_adventure.query_decomposition'
p683
sg12
g13
(g14
g15
NtRp684
(dp685
g18
I1
sg19
I0
sg20
I0
sg21
I0
sg22
I0
sg23
I0
sg24
I0
sbssg25
S'\xb0\xc8pN\xaf>\xa0\xbaz\x144\xe0A9\xb8?'
p686
ssS'django_contrib_auth_signals'
p687
(dp688
g50
(dp689
g52
S'django_contrib_auth_signals.html'
p690
sg54
S'django.contrib.auth.signals'
p691
sg56
g13
(g14
g15
NtRp692
(dp693
g18
I1
sg19
I0
sg20
I3
sg21
I0
sg22
I0
sg23
I0
sg24
I0
sbssg59
S'\x13\x17\x85\x98\x81\r`\x1b~4\x04;\x16\x9b%L'
p694
ssS'django_utils_text'
p695
(dp696
g50
(dp697
g52
S'django_utils_text.html'
p698
sg54
S'django.utils.text'
p699
sg56
g13
(g14
g15
NtRp700
(dp701
g18
I1
sg19
I0
sg20
I210
sg21
I0
sg22
I0
sg23
I158
sg24
I0
sbssg59
S'\'\x8f\xf8?\xbc\xc41"\xb0\x17\x14V"\x98\x1a\x8e'
p702
ssS'fuzzy_adventure_query_decomposition_nlp_system'
p703
(dp704
g6
(dp705
g8
S'fuzzy_adventure_query_decomposition_nlp_system.html'
p706
sg10
S'fuzzy_adventure.query_decomposition.nlp_system'
p707
sg12
g13
(g14
g15
NtRp708
(dp709
g18
I1
sg19
I0
sg20
I0
sg21
I0
sg22
I0
sg23
I0
sg24
I0
sbssg25
S'\xb0\xc8pN\xaf>\xa0\xbaz\x144\xe0A9\xb8?'
p710
ssS'json'
p711
(dp712
g6
(dp713
g8
S'json.html'
p714
sg10
g711
sg12
g13
(g14
g15
NtRp715
(dp716
g18
I1
sg19
I0
sg20
I39
sg21
I0
sg22
I0
sg23
I39
sg24
I0
sbssg25
S'\xbera\x9b2*\x99S@\xe0\xcb\x8e\x86ZN6'
p717
ssS'json_encoder'
p718
(dp719
g6
(dp720
g8
S'json_encoder.html'
p721
sg10
S'json.encoder'
p722
sg12
g13
(g14
g15
NtRp723
(dp724
g18
I1
sg19
I0
sg20
I241
sg21
I0
sg22
I0
sg23
I241
sg24
I0
sbssg25
S'q\xc4\xd1\x01\xcb\xa0b\x07\x00!\xc2~\xf5\x14\xe8\xa6'
p725
ssS'Cookie'
p726
(dp727
g50
(dp728
g52
S'Cookie.html'
p729
sg54
g726
sg56
g13
(g14
g15
NtRp730
(dp731
g18
I1
sg19
I0
sg20
I201
sg21
I0
sg22
I0
sg23
I201
sg24
I0
sbssg59
S'b|g-hn\xc6\xbe\xe4Kw\x8en\xa3xE'
p732
ssS'django_utils_translation'
p733
(dp734
g50
(dp735
g52
S'django_utils_translation.html'
p736
sg54
S'django.utils.translation'
p737
sg56
g13
(g14
g15
NtRp738
(dp739
g18
I1
sg19
I0
sg20
I86
sg21
I0
sg22
I0
sg23
I45
sg24
I0
sbssg59
S'\xf6\xbe\xc12\xff\x18\x1b\n\xab"\xcfn\x7f\x9b3\xc3'
p740
ssS'email_mime_message'
p741
(dp742
g50
(dp743
g52
S'email_mime_message.html'
p744
sg54
S'email.mime.message'
p745
sg56
g13
(g14
g15
NtRp746
(dp747
g18
I1
sg19
I0
sg20
I11
sg21
I0
sg22
I0
sg23
I11
sg24
I0
sbssg59
S'\x1fkE\x9c\x85\x13\xf0\x92\x1et]\xf6\xfd\x0fF='
p748
ssS'simplejson'
p749
(dp750
g50
(dp751
g52
S'simplejson.html'
p752
sg54
g749
sg56
g13
(g14
g15
NtRp753
(dp754
g18
I1
sg19
I0
sg20
I75
sg21
I0
sg22
I0
sg23
I56
sg24
I0
sbssg59
S'\xb1<5\xfe\xf8\x85\xcfi\x17r\xef\xbb\xf1]\x19\xa7'
p755
ssS'logging_handlers'
p756
(dp757
g50
(dp758
g52
S'logging_handlers.html'
p759
sg54
S'logging.handlers'
p760
sg56
g13
(g14
g15
NtRp761
(dp762
g18
I1
sg19
I0
sg20
I530
sg21
I0
sg22
I0
sg23
I530
sg24
I0
sbssg59
S'\xd3\x9d&\xfcL\xb03\x9d\xb4\xc6\xb7\x16\x9cT\x80\xc8'
p763
ssS'logging_config'
p764
(dp765
g50
(dp766
g52
S'logging_config.html'
p767
sg54
S'logging.config'
p768
sg56
g13
(g14
g15
NtRp769
(dp770
g18
I1
sg19
I0
sg20
I589
sg21
I0
sg22
I0
sg23
I589
sg24
I0
sbssg59
S'\\\x9f"\\^t\xaf\x93I$\x08l\xca2\x87^'
p771
ssS'email_errors'
p772
(dp773
g50
(dp774
g52
S'email_errors.html'
p775
sg54
S'email.errors'
p776
sg56
g13
(g14
g15
NtRp777
(dp778
g18
I1
sg19
I0
sg20
I16
sg21
I0
sg22
I0
sg23
I16
sg24
I0
sbssg59
S"\x0f\x19\x04,\xee\xdd\xf9\xbc'XzZ\xdb\x05\x83\x9a"
p779
ssS'pytz'
p780
(dp781
g50
(dp782
g52
S'pytz.html'
p783
sg54
g780
sg56
g13
(g14
g15
NtRp784
(dp785
g18
I1
sg19
I0
sg20
I165
sg21
I0
sg22
I0
sg23
I88
sg24
I0
sbssg59
S'\x13\xb2\n\x0b\xa1\x89b",{\xeb\xb4\x17\x9b"\x12'
p786
ssS'django_utils_encoding'
p787
(dp788
g50
(dp789
g52
S'django_utils_encoding.html'
p790
sg54
S'django.utils.encoding'
p791
sg56
g13
(g14
g15
NtRp792
(dp793
g18
I1
sg19
I0
sg20
I82
sg21
I0
sg22
I0
sg23
I57
sg24
I0
sbssg59
S'{\xb6N`\xb7f\xf4ZmB\xdf\xec\x00r\x97\xe6'
p794
ssS'_usr_local_lib_python2_7_dist-packages_nose_plugins_manager'
p795
(dp796
g29
(dp797
g31
S'_usr_local_lib_python2_7_dist-packages_nose_plugins_manager.html'
p798
sg33
S'/usr/local/lib/python2.7/dist-packages/nose/plugins/manager'
p799
sg35
g13
(g14
g15
NtRp800
(dp801
g18
I1
sg19
I0
sg20
I265
sg21
I0
sg22
I0
sg23
I219
sg24
I0
sbssg38
S'\x02"\x86\x99\xa6\xb8cKEV\xf5\xa7\x0cP\xe3-'
p802
ssS'_usr_local_lib_python2_7_dist-packages_nose_selector'
p803
(dp804
g29
(dp805
g31
S'_usr_local_lib_python2_7_dist-packages_nose_selector.html'
p806
sg33
S'/usr/local/lib/python2.7/dist-packages/nose/selector'
p807
sg35
g13
(g14
g15
NtRp808
(dp809
g18
I1
sg19
I0
sg20
I134
sg21
I0
sg22
I0
sg23
I112
sg24
I0
sbssg38
S'Q\xaa\xdb>Euj*\xb9\r\x1a\x93%&tG'
p810
ssS'_usr_local_lib_python2_7_dist-packages_nose_util'
p811
(dp812
g29
(dp813
g31
S'_usr_local_lib_python2_7_dist-packages_nose_util.html'
p814
sg33
S'/usr/local/lib/python2.7/dist-packages/nose/util'
p815
sg35
g13
(g14
g15
NtRp816
(dp817
g18
I1
sg19
I0
sg20
I341
sg21
I0
sg22
I0
sg23
I302
sg24
I0
sbssg38
S'w\x17\x89\xf7\xea#\x12Y\xc36\xf1&;\xe5~\x1a'
p818
ssS'uu'
p819
(dp820
g50
(dp821
g52
S'uu.html'
p822
sg54
g819
sg56
g13
(g14
g15
NtRp823
(dp824
g18
I1
sg19
I0
sg20
I121
sg21
I0
sg22
I0
sg23
I121
sg24
I0
sbssg59
S'R\xc9\x07\xfa_\x8d%\xd7\x89=ru\xb4\xa4";'
p825
ssS'fuzzy_adventure'
p826
(dp827
g6
(dp828
g8
S'fuzzy_adventure.html'
p829
sg10
g826
sg12
g13
(g14
g15
NtRp830
(dp831
g18
I1
sg19
I0
sg20
I0
sg21
I0
sg22
I0
sg23
I0
sg24
I0
sbssg25
S'\xb0\xc8pN\xaf>\xa0\xbaz\x144\xe0A9\xb8?'
p832
ssS'email_charset'
p833
(dp834
g50
(dp835
g52
S'email_charset.html'
p836
sg54
S'email.charset'
p837
sg56
g13
(g14
g15
NtRp838
(dp839
g18
I1
sg19
I0
sg20
I116
sg21
I0
sg22
I0
sg23
I116
sg24
I0
sbssg59
S'\x87\x18\xbb\x9bdt\xc5\x9d\xd6I?MGg\x02\x89'
p840
ssS'django_core_signals'
p841
(dp842
g50
(dp843
g52
S'django_core_signals.html'
p844
sg54
S'django.core.signals'
p845
sg56
g13
(g14
g15
NtRp846
(dp847
g18
I1
sg19
I0
sg20
I4
sg21
I0
sg22
I0
sg23
I0
sg24
I0
sbssg59
S'\xa8\x92\x82\x13=\x82/\x06\xba\xb2\xa6\xad\xc4o\x81\xc2'
p848
ssS'django_views_debug'
p849
(dp850
g50
(dp851
g52
S'django_views_debug.html'
p852
sg54
S'django.views.debug'
p853
sg56
g13
(g14
g15
NtRp854
(dp855
g18
I1
sg19
I0
sg20
I274
sg21
I0
sg22
I0
sg23
I230
sg24
I0
sbssg59
S'E\x1f\x8e\xc1[\xc0\xa1\xf0{\xa5;G!T\xff\x9f'
p856
ssS'django_core_mail'
p857
(dp858
g50
(dp859
g52
S'django_core_mail.html'
p860
sg54
S'django.core.mail'
p861
sg56
g13
(g14
g15
NtRp862
(dp863
g18
I1
sg19
I0
sg20
I38
sg21
I0
sg22
I0
sg23
I28
sg24
I0
sbssg59
S'-\x89\xe2MN\xf5\x8f\xb6\x13\x12\x0c\xa7V\xa2#\xa2'
p864
ssS'mimetools'
p865
(dp866
g50
(dp867
g52
S'mimetools.html'
p868
sg54
g865
sg56
g13
(g14
g15
NtRp869
(dp870
g18
I1
sg19
I0
sg20
I162
sg21
I0
sg22
I0
sg23
I162
sg24
I0
sbssg59
S'Q\xc4\x87;\xab\x076\x8f\xa2\x14\x8a\x94\xa8{I}'
p871
ssS'django_core_handlers_wsgi'
p872
(dp873
g50
(dp874
g52
S'django_core_handlers_wsgi.html'
p875
sg54
S'django.core.handlers.wsgi'
p876
sg56
g13
(g14
g15
NtRp877
(dp878
g18
I1
sg19
I0
sg20
I142
sg21
I0
sg22
I0
sg23
I103
sg24
I0
sbssg59
S'\xa83\xcc]\xf1\xe5\xea,\xf9m+\xb2l\x89&V'
p879
ssS'django_utils_functional'
p880
(dp881
g50
(dp882
g52
S'django_utils_functional.html'
p883
sg54
S'django.utils.functional'
p884
sg56
g13
(g14
g15
NtRp885
(dp886
g18
I1
sg19
I0
sg20
I168
sg21
I0
sg22
I0
sg23
I80
sg24
I0
sbssg59
S'\x15\xe7\x8bW\xebS\xd3\x10yN\xddn\xed\xdd\xbb\xdc'
p887
ssS'fuzzy_adventure_database'
p888
(dp889
g6
(dp890
g8
S'fuzzy_adventure_database.html'
p891
sg10
S'fuzzy_adventure.database'
p892
sg12
g13
(g14
g15
NtRp893
(dp894
g18
I1
sg19
I0
sg20
I0
sg21
I0
sg22
I0
sg23
I0
sg24
I0
sbssg25
S'\xb0\xc8pN\xaf>\xa0\xbaz\x144\xe0A9\xb8?'
p895
ssS'django_core_signing'
p896
(dp897
g50
(dp898
g52
S'django_core_signing.html'
p899
sg54
S'django.core.signing'
p900
sg56
g13
(g14
g15
NtRp901
(dp902
g18
I1
sg19
I0
sg20
I92
sg21
I0
sg22
I0
sg23
I61
sg24
I0
sbssg59
S'\xb7\x1bS\x13Q\xb4\xf5k\x90\xf7hKv\xf0\xb8\x87'
p903
ssS'email_iterators'
p904
(dp905
g50
(dp906
g52
S'email_iterators.html'
p907
sg54
S'email.iterators'
p908
sg56
g13
(g14
g15
NtRp909
(dp910
g18
I1
sg19
I0
sg20
I32
sg21
I0
sg22
I0
sg23
I32
sg24
I0
sbssg59
S'I\xc5\x03\x19\x97\x84\xceX\x95\xb5\x87\x10\x94\x99a\x9b'
p911
ssS'numbers'
p912
(dp913
g50
(dp914
g52
S'numbers.html'
p915
sg54
g912
sg56
g13
(g14
g15
NtRp916
(dp917
g18
I1
sg19
I0
sg20
I132
sg21
I0
sg22
I0
sg23
I132
sg24
I0
sbssg59
S'\x07\xa3\x8f\x89\x1b\xae\xdb\xc0\xbbN\xb3\xe8\xc0\xa7\x01f'
p918
ssS'io'
p919
(dp920
g50
(dp921
g52
S'io.html'
p922
sg54
g919
sg56
g13
(g14
g15
NtRp923
(dp924
g18
I1
sg19
I0
sg20
I23
sg21
I0
sg22
I0
sg23
I23
sg24
I0
sbssg59
S'|\xfa\xe4\xa1\x17\xdf\xed\x90\x95\x18\xc7\xf5\xfdC\xfe\xa8'
p925
ssS'_usr_local_lib_python2_7_dist-packages_nose_suite'
p926
(dp927
g29
(dp928
g31
S'_usr_local_lib_python2_7_dist-packages_nose_suite.html'
p929
sg33
S'/usr/local/lib/python2.7/dist-packages/nose/suite'
p930
sg35
g13
(g14
g15
NtRp931
(dp932
g18
I1
sg19
I0
sg20
I394
sg21
I0
sg22
I0
sg23
I237
sg24
I0
sbssg38
S'\xccE7c\xcf\x91Va\x0cOw\x0f\xa5\xf6\x05k'
p933
ssS'email_generator'
p934
(dp935
g50
(dp936
g52
S'email_generator.html'
p937
sg54
S'email.generator'
p938
sg56
g13
(g14
g15
NtRp939
(dp940
g18
I1
sg19
I0
sg20
I167
sg21
I0
sg22
I0
sg23
I167
sg24
I0
sbssg59
S"\x8e\xc7\xadw\xadV\xa8'\xe7q+\xac\x81\xa2C\xb0"
p941
ssS'fuzzy_adventure_database_builder'
p942
(dp943
g6
(dp944
g8
S'fuzzy_adventure_database_builder.html'
p945
sg10
S'fuzzy_adventure.database_builder'
p946
sg12
g13
(g14
g15
NtRp947
(dp948
g18
I1
sg19
I0
sg20
I0
sg21
I0
sg22
I0
sg23
I0
sg24
I0
sbssg25
S'\xb0\xc8pN\xaf>\xa0\xbaz\x144\xe0A9\xb8?'
p949
ssS'fuzzy_adventure_query_decomposition_sql_translation'
p950
(dp951
g6
(dp952
g8
S'fuzzy_adventure_query_decomposition_sql_translation.html'
p953
sg10
S'fuzzy_adventure.query_decomposition.sql_translation'
p954
sg12
g13
(g14
g15
NtRp955
(dp956
g18
I1
sg19
I0
sg20
I0
sg21
I0
sg22
I0
sg23
I0
sg24
I0
sbssg25
S'\xb0\xc8pN\xaf>\xa0\xbaz\x144\xe0A9\xb8?'
p957
ssS'django_utils_http'
p958
(dp959
g50
(dp960
g52
S'django_utils_http.html'
p961
sg54
S'django.utils.http'
p962
sg56
g13
(g14
g15
NtRp963
(dp964
g18
I1
sg19
I0
sg20
I115
sg21
I0
sg22
I0
sg23
I74
sg24
I0
sbssg59
S"\x81\x9f&\xec\x13\x05\x0b\xce\x99\x8a\xa4\x82'`\xf2\x9c"
p965
ssS'django_utils_importlib'
p966
(dp967
g50
(dp968
g52
S'django_utils_importlib.html'
p969
sg54
S'django.utils.importlib'
p970
sg56
g13
(g14
g15
NtRp971
(dp972
g18
I1
sg19
I0
sg20
I23
sg21
I0
sg22
I0
sg23
I17
sg24
I0
sbssg59
S'\xa8\x0f\xfa^\xa8\x17\xce\x9e"\xec[\\8<\xf4\xb3'
p973
ssS'django_utils_dates'
p974
(dp975
g50
(dp976
g52
S'django_utils_dates.html'
p977
sg54
S'django.utils.dates'
p978
sg56
g13
(g14
g15
NtRp979
(dp980
g18
I1
sg19
I0
sg20
I9
sg21
I0
sg22
I0
sg23
I0
sg24
I0
sbssg59
S'\xed\xe1n\x81\x12\xc1\xc6\x8b\xd8\x98O4:mTA'
p981
ssS'fuzzy_adventure_search'
p982
(dp983
g6
(dp984
g8
S'fuzzy_adventure_search.html'
p985
sg10
S'fuzzy_adventure.search'
p986
sg12
g13
(g14
g15
NtRp987
(dp988
g18
I1
sg19
I0
sg20
I0
sg21
I0
sg22
I0
sg23
I0
sg24
I0
sbssg25
S'\xb0\xc8pN\xaf>\xa0\xbaz\x144\xe0A9\xb8?'
p989
ssS'django_db_utils'
p990
(dp991
g50
(dp992
g52
S'django_db_utils.html'
p993
sg54
S'django.db.utils'
p994
sg56
g13
(g14
g15
NtRp995
(dp996
g18
I1
sg19
I0
sg20
I120
sg21
I0
sg22
I0
sg23
I91
sg24
I0
sbssg59
S'\xb3\xa6y9\xe9\x14\x91D\x80N\xe3\x8aaN\x07P'
p997
ssS'django_utils_module_loading'
p998
(dp999
g50
(dp1000
g52
S'django_utils_module_loading.html'
p1001
sg54
S'django.utils.module_loading'
p1002
sg56
g13
(g14
g15
NtRp1003
(dp1004
g18
I1
sg19
I0
sg20
I48
sg21
I0
sg22
I0
sg23
I44
sg24
I0
sbssg59
S'\x81\xbe\xb4\xca\xff\xe8Z\x15]\x06\xfc\xf1\xc4\xd9\x9a;'
p1005
ssS'django_utils_itercompat'
p1006
(dp1007
g50
(dp1008
g52
S'django_utils_itercompat.html'
p1009
sg54
S'django.utils.itercompat'
p1010
sg56
g13
(g14
g15
NtRp1011
(dp1012
g18
I1
sg19
I0
sg20
I24
sg21
I0
sg22
I0
sg23
I15
sg24
I0
sbssg59
S'OXMhC\xbe8\xb9E{b\x17w\xbf\xa2~'
p1013
ssS'django_http'
p1014
(dp1015
g50
(dp1016
g52
S'django_http.html'
p1017
sg54
S'django.http'
p1018
sg56
g13
(g14
g15
NtRp1019
(dp1020
g18
I1
sg19
I0
sg20
I496
sg21
I0
sg22
I0
sg23
I338
sg24
I0
sbssg59
S'\xe0\xce\xb44P2k\xd4%\xa9\xccjb\x8f@h'
p1021
ssS'django_core'
p1022
(dp1023
g50
(dp1024
g52
S'django_core.html'
p1025
sg54
S'django.core'
p1026
sg56
g13
(g14
g15
NtRp1027
(dp1028
g18
I1
sg19
I0
sg20
I0
sg21
I0
sg22
I0
sg23
I0
sg24
I0
sbssg59
S'\xb0\xc8pN\xaf>\xa0\xbaz\x144\xe0A9\xb8?'
p1029
ssS'email_feedparser'
p1030
(dp1031
g50
(dp1032
g52
S'email_feedparser.html'
p1033
sg54
S'email.feedparser'
p1034
sg56
g13
(g14
g15
NtRp1035
(dp1036
g18
I1
sg19
I0
sg20
I306
sg21
I0
sg22
I0
sg23
I306
sg24
I0
sbssg59
S'\x83\x1bZ\xb8-\xbe\xd8\xc4\x82\xe3\xc3\xe4\xff\xa6B\xb7'
p1037
ssS'django_contrib_auth'
p1038
(dp1039
g50
(dp1040
g52
S'django_contrib_auth.html'
p1041
sg54
S'django.contrib.auth'
p1042
sg56
g13
(g14
g15
NtRp1043
(dp1044
g18
I1
sg19
I0
sg20
I73
sg21
I0
sg22
I0
sg23
I60
sg24
I0
sbssg59
S'B_M\x9d\x87\xec\xba\x84W\x9b\xf6\x96\xf9oC\x9c'
p1045
ssS'mimetypes'
p1046
(dp1047
g50
(dp1048
g52
S'mimetypes.html'
p1049
sg54
g1046
sg56
g13
(g14
g15
NtRp1050
(dp1051
g18
I1
sg19
I0
sg20
I199
sg21
I0
sg22
I0
sg23
I199
sg24
I0
sbssg59
S'o\x05\x8cjy\x8af\xf3\x87\xab\xa1\x85\xb5\xad\xbfY'
p1052
ssS'django_utils_crypto'
p1053
(dp1054
g50
(dp1055
g52
S'django_utils_crypto.html'
p1056
sg54
S'django.utils.crypto'
p1057
sg56
g13
(g14
g15
NtRp1058
(dp1059
g18
I1
sg19
I0
sg20
I68
sg21
I0
sg22
I0
sg23
I48
sg24
I0
sbssg59
S'\xa3\xc5}l\x04ww\x01\xe1\xf0$\xbc\x1dW\xe7\x06'
p1060
ssS'rfc822'
p1061
(dp1062
g50
(dp1063
g52
S'rfc822.html'
p1064
sg54
g1061
sg56
g13
(g14
g15
NtRp1065
(dp1066
g18
I1
sg19
I0
sg20
I574
sg21
I0
sg22
I0
sg23
I574
sg24
I0
sbssg59
S'\xe8]\x803\xc9\tvu\xb7\x08bj\xc6xC)'
p1067
ssS'django_core_files'
p1068
(dp1069
g50
(dp1070
g52
S'django_core_files.html'
p1071
sg54
S'django.core.files'
p1072
sg56
g13
(g14
g15
NtRp1073
(dp1074
g18
I1
sg19
I0
sg20
I1
sg21
I0
sg22
I0
sg23
I0
sg24
I0
sbssg59
S"\xa1\xbfiA'\x85B\x1e\xd8\xe0\x91\xe3\xf7\x86\x81\xb2"
p1075
ssS'htmlentitydefs'
p1076
(dp1077
g50
(dp1078
g52
S'htmlentitydefs.html'
p1079
sg54
g1076
sg56
g13
(g14
g15
NtRp1080
(dp1081
g18
I1
sg19
I0
sg20
I9
sg21
I0
sg22
I0
sg23
I9
sg24
I0
sbssg59
S's\xe6\xd7kz2Lfw\x16N?[\x90~}'
p1082
ssS'django_core_mail_utils'
p1083
(dp1084
g50
(dp1085
g52
S'django_core_mail_utils.html'
p1086
sg54
S'django.core.mail.utils'
p1087
sg56
g13
(g14
g15
NtRp1088
(dp1089
g18
I1
sg19
I0
sg20
I9
sg21
I0
sg22
I0
sg23
I4
sg24
I0
sbssg59
S'q\x8f\x86\xa8\x10\xa1\x04\x98^\x0e\xe8\x93\xb7X\xaan'
p1090
ssS'fuzzy_adventure_analytics'
p1091
(dp1092
g6
(dp1093
g8
S'fuzzy_adventure_analytics.html'
p1094
sg10
S'fuzzy_adventure.analytics'
p1095
sg12
g13
(g14
g15
NtRp1096
(dp1097
g18
I1
sg19
I0
sg20
I0
sg21
I0
sg22
I0
sg23
I0
sg24
I0
sbssg25
S'\xb0\xc8pN\xaf>\xa0\xbaz\x144\xe0A9\xb8?'
p1098
ssS'django_template_base'
p1099
(dp1100
g50
(dp1101
g52
S'django_template_base.html'
p1102
sg54
S'django.template.base'
p1103
sg56
g13
(g14
g15
NtRp1104
(dp1105
g18
I1
sg19
I0
sg20
I770
sg21
I0
sg22
I0
sg23
I569
sg24
I0
sbssg59
S"\xc4\x918\xb2V'<\x8bux\x1c@\xb3ca9"
p1106
ssS'django_core_files_uploadhandler'
p1107
(dp1108
g50
(dp1109
g52
S'django_core_files_uploadhandler.html'
p1110
sg54
S'django.core.files.uploadhandler'
p1111
sg56
g13
(g14
g15
NtRp1112
(dp1113
g18
I1
sg19
I0
sg20
I89
sg21
I0
sg22
I0
sg23
I54
sg24
I0
sbssg59
S'\xd7\x85G\xd1\xdc3<\xf5\xe9\xd6UF?\xc2\x90\xde'
p1114
ssS'django_core_urlresolvers'
p1115
(dp1116
g50
(dp1117
g52
S'django_core_urlresolvers.html'
p1118
sg54
S'django.core.urlresolvers'
p1119
sg56
g13
(g14
g15
NtRp1120
(dp1121
g18
I1
sg19
I0
sg20
I339
sg21
I0
sg22
I0
sg23
I269
sg24
I0
sbssg59
S'\n\xe9\xc0\x1f\x92Y\xa4\xbb\xb7\xdc!/\x03\xfdZ%'
p1122
ssS'_usr_local_lib_python2_7_dist-packages_nose_loader'
p1123
(dp1124
g29
(dp1125
g31
S'_usr_local_lib_python2_7_dist-packages_nose_loader.html'
p1126
sg33
S'/usr/local/lib/python2.7/dist-packages/nose/loader'
p1127
sg35
g13
(g14
g15
NtRp1128
(dp1129
g18
I1
sg19
I0
sg20
I351
sg21
I0
sg22
I0
sg23
I317
sg24
I0
sbssg38
S'\xb6z\xec2z\n\x9e\xdb\x1b\xc2\x06\x8f\x10+b\xcb'
p1130
ssS'email_quoprimime'
p1131
(dp1132
g50
(dp1133
g52
S'email_quoprimime.html'
p1134
sg54
S'email.quoprimime'
p1135
sg56
g13
(g14
g15
NtRp1136
(dp1137
g18
I1
sg19
I0
sg20
I138
sg21
I0
sg22
I0
sg23
I138
sg24
I0
sbssg59
S'\\\x9eD\x1a6S\x8b\xd9t\xb2\x0e\x10r\x12\x0c\xf6'
p1138
ssS'django'
p1139
(dp1140
g50
(dp1141
g52
S'django.html'
p1142
sg54
g1139
sg56
g13
(g14
g15
NtRp1143
(dp1144
g18
I1
sg19
I0
sg20
I18
sg21
I0
sg22
I0
sg23
I6
sg24
I0
sbssg59
S'\xf0\x13?\xd9\xba.\xecb\x02\xbc\xc7\x99)\xd7:\xea'
p1145
ssS'fuzzy_adventure_query_decomposition_nlidb_template_selectors'
p1146
(dp1147
g6
(dp1148
g8
S'fuzzy_adventure_query_decomposition_nlidb_template_selectors.html'
p1149
sg10
S'fuzzy_adventure.query_decomposition.nlidb.template_selectors'
p1150
sg12
g13
(g14
g15
NtRp1151
(dp1152
g18
I1
sg19
I0
sg20
I0
sg21
I0
sg22
I0
sg23
I0
sg24
I0
sbssg25
S'\xb0\xc8pN\xaf>\xa0\xbaz\x144\xe0A9\xb8?'
p1153
ssS'django_utils_timesince'
p1154
(dp1155
g50
(dp1156
g52
S'django_utils_timesince.html'
p1157
sg54
S'django.utils.timesince'
p1158
sg56
g13
(g14
g15
NtRp1159
(dp1160
g18
I1
sg19
I0
sg20
I28
sg21
I0
sg22
I0
sg23
I23
sg24
I0
sbssg59
S'\xfd1-5\xb5\xd0-~\xd5u\xc2\xb4/\xe6"0'
p1161
ssS'gzip'
p1162
(dp1163
g50
(dp1164
g52
S'gzip.html'
p1165
sg54
g1162
sg56
g13
(g14
g15
NtRp1166
(dp1167
g18
I1
sg19
I0
sg20
I317
sg21
I0
sg22
I0
sg23
I317
sg24
I0
sbssg59
S'\xc3+\xa4\xb9v"$\x0f\x19\x92\x8e@\xc0\xe2\x80\x96'
p1168
ssS'django_core_handlers_base'
p1169
(dp1170
g50
(dp1171
g52
S'django_core_handlers_base.html'
p1172
sg54
S'django.core.handlers.base'
p1173
sg56
g13
(g14
g15
NtRp1174
(dp1175
g18
I1
sg19
I0
sg20
I151
sg21
I0
sg22
I0
sg23
I136
sg24
I0
sbssg59
S'\xdad\xee\x14\x17\x9bxc\xbc\xbd@:}Z\x18\xe1'
p1176
ssS'hmac'
p1177
(dp1178
g50
(dp1179
g52
S'hmac.html'
p1180
sg54
g1177
sg56
g13
(g14
g15
NtRp1181
(dp1182
g18
I1
sg19
I0
sg20
I54
sg21
I0
sg22
I0
sg23
I54
sg24
I0
sbssg59
S'\x15YG\xfbj\x8a?r\xec\xbc02\xeb\xd0H\xe3'
p1183
ssS'email_mime'
p1184
(dp1185
g50
(dp1186
g52
S'email_mime.html'
p1187
sg54
S'email.mime'
p1188
sg56
g13
(g14
g15
NtRp1189
(dp1190
g18
I1
sg19
I0
sg20
I0
sg21
I0
sg22
I0
sg23
I0
sg24
I0
sbssg59
S'\xe5P\x11)^\xf4>1D.\x0e\x0b\xa1\xf8[+'
p1191
sssS'version'
p1192
S'3.6'
p1193
sS'settings'
p1194
S'\x0f\xd0JHYv\x01n\xf0\xee\xc3\xb3\xad.\xf1\xae'
p1195
sS'format'
p1196
I1
s.