(dp1
S'files'
p2
(dp3
S'fuzzy_adventure_query_decomposition_nlidb_term_selectors'
p4
(dp5
S'index'
p6
(dp7
S'html_filename'
p8
S'fuzzy_adventure_query_decomposition_nlidb_term_selectors.html'
p9
sS'name'
p10
S'fuzzy_adventure.query_decomposition.nlidb.term_selectors'
p11
sS'nums'
p12
ccopy_reg
_reconstructor
p13
(ccoverage.results
Numbers
p14
c__builtin__
object
p15
NtRp16
(dp17
S'n_files'
p18
I1
sS'n_branches'
p19
I0
sS'n_statements'
p20
I0
sS'n_excluded'
p21
I0
sS'n_partial_branches'
p22
I0
sS'n_missing'
p23
I0
sS'n_missing_branches'
p24
I0
sbssS'hash'
p25
S'\xb0\xc8pN\xaf>\xa0\xbaz\x144\xe0A9\xb8?'
p26
ssS'fuzzy_adventure_query_decomposition_nlidb'
p27
(dp28
g6
(dp29
g8
S'fuzzy_adventure_query_decomposition_nlidb.html'
p30
sg10
S'fuzzy_adventure.query_decomposition.nlidb'
p31
sg12
g13
(g14
g15
NtRp32
(dp33
g18
I1
sg19
I0
sg20
I0
sg21
I0
sg22
I0
sg23
I0
sg24
I0
sbssg25
S'\xb0\xc8pN\xaf>\xa0\xbaz\x144\xe0A9\xb8?'
p34
ssS'fuzzy_adventure_query_decomposition_nlp_system'
p35
(dp36
g6
(dp37
g8
S'fuzzy_adventure_query_decomposition_nlp_system.html'
p38
sg10
S'fuzzy_adventure.query_decomposition.nlp_system'
p39
sg12
g13
(g14
g15
NtRp40
(dp41
g18
I1
sg19
I0
sg20
I0
sg21
I0
sg22
I0
sg23
I0
sg24
I0
sbssg25
S'\xb0\xc8pN\xaf>\xa0\xbaz\x144\xe0A9\xb8?'
p42
ssS'fuzzy_adventure_query_decomposition_permutation'
p43
(dp44
g6
(dp45
g8
S'fuzzy_adventure_query_decomposition_permutation.html'
p46
sg10
S'fuzzy_adventure.query_decomposition.permutation'
p47
sg12
g13
(g14
g15
NtRp48
(dp49
g18
I1
sg19
I0
sg20
I25
sg21
I0
sg22
I0
sg23
I20
sg24
I0
sbssg25
S'\xae\xf7\xb9\xbb\x0b\x07\xa3\xfd)\xd1c1d!V\x88'
p50
ssS'fuzzy_adventure_query_decomposition_nlidb_template_selectors'
p51
(dp52
g6
(dp53
g8
S'fuzzy_adventure_query_decomposition_nlidb_template_selectors.html'
p54
sg10
S'fuzzy_adventure.query_decomposition.nlidb.template_selectors'
p55
sg12
g13
(g14
g15
NtRp56
(dp57
g18
I1
sg19
I0
sg20
I0
sg21
I0
sg22
I0
sg23
I0
sg24
I0
sbssg25
S'\xb0\xc8pN\xaf>\xa0\xbaz\x144\xe0A9\xb8?'
p58
ssS'fuzzy_adventure_query_decomposition_nlidb_term_selectors_term_selector'
p59
(dp60
g6
(dp61
S'html_filename'
p62
S'fuzzy_adventure_query_decomposition_nlidb_term_selectors_term_selector.html'
p63
sS'name'
p64
S'fuzzy_adventure.query_decomposition.nlidb.term_selectors.term_selector'
p65
sS'nums'
p66
g13
(g14
g15
NtRp67
(dp68
g18
I1
sg19
I0
sg20
I48
sg21
I0
sg22
I0
sg23
I27
sg24
I0
sbssg25
S'\x1d,%;\x16\xc3\xf7l\xbd\xb3\xc3\xe9\xcc\xa7\xb4\xd0'
p69
ssS'fuzzy_adventure_query_decomposition_sql_translation'
p70
(dp71
g6
(dp72
g8
S'fuzzy_adventure_query_decomposition_sql_translation.html'
p73
sg10
S'fuzzy_adventure.query_decomposition.sql_translation'
p74
sg12
g13
(g14
g15
NtRp75
(dp76
g18
I1
sg19
I0
sg20
I0
sg21
I0
sg22
I0
sg23
I0
sg24
I0
sbssg25
S'\xb0\xc8pN\xaf>\xa0\xbaz\x144\xe0A9\xb8?'
p77
ssS'fuzzy_adventure_query_decomposition'
p78
(dp79
g6
(dp80
g8
S'fuzzy_adventure_query_decomposition.html'
p81
sg10
S'fuzzy_adventure.query_decomposition'
p82
sg12
g13
(g14
g15
NtRp83
(dp84
g18
I1
sg19
I0
sg20
I0
sg21
I0
sg22
I0
sg23
I0
sg24
I0
sbssg25
S'\xb0\xc8pN\xaf>\xa0\xbaz\x144\xe0A9\xb8?'
p85
sssS'version'
p86
S'3.6'
p87
sS'settings'
p88
S'\x0f\xd0JHYv\x01n\xf0\xee\xc3\xb3\xad.\xf1\xae'
p89
sS'format'
p90
I1
s.