(dp1
S'files'
p2
(dp3
S'json_scanner'
p4
(dp5
S'index'
p6
(dp7
S'html_filename'
p8
S'json_scanner.html'
p9
sS'name'
p10
S'json.scanner'
p11
sS'nums'
p12
ccopy_reg
_reconstructor
p13
(ccoverage.results
Numbers
p14
c__builtin__
object
p15
NtRp16
(dp17
S'n_files'
p18
I1
sS'n_branches'
p19
I0
sS'n_statements'
p20
I52
sS'n_excluded'
p21
I0
sS'n_partial_branches'
p22
I0
sS'n_missing'
p23
I52
sS'n_missing_branches'
p24
I0
sbssS'hash'
p25
S'$\xcb\xac\xc2\x18\x18\xa3\x18a\xf17\x99\xb4\xc6_e'
p26
ssS'fuzzy_adventure_GUI'
p27
(dp28
g6
(dp29
g8
S'fuzzy_adventure_GUI.html'
p30
sg10
S'fuzzy_adventure.GUI'
p31
sg12
g13
(g14
g15
NtRp32
(dp33
g18
I1
sg19
I0
sg20
I0
sg21
I0
sg22
I0
sg23
I0
sg24
I0
sbssg25
S'\xb0\xc8pN\xaf>\xa0\xbaz\x144\xe0A9\xb8?'
p34
ssS'fuzzy_adventure_analytics'
p35
(dp36
g6
(dp37
g8
S'fuzzy_adventure_analytics.html'
p38
sg10
S'fuzzy_adventure.analytics'
p39
sg12
g13
(g14
g15
NtRp40
(dp41
g18
I1
sg19
I0
sg20
I0
sg21
I0
sg22
I0
sg23
I0
sg24
I0
sbssg25
S'\xb0\xc8pN\xaf>\xa0\xbaz\x144\xe0A9\xb8?'
p42
ssS'_usr_local_lib_python2_7_dist-packages_nose_failure'
p43
(dp44
S'index'
p45
(dp46
S'html_filename'
p47
S'_usr_local_lib_python2_7_dist-packages_nose_failure.html'
p48
sS'name'
p49
S'/usr/local/lib/python2.7/dist-packages/nose/failure'
p50
sS'nums'
p51
g13
(g14
g15
NtRp52
(dp53
g18
I1
sg19
I0
sg20
I24
sg21
I0
sg22
I0
sg23
I15
sg24
I0
sbssS'hash'
p54
S'2&\xc2\x12\xfco\xda\x85 A>\x19\xc7Iv\x8c'
p55
ssS'fuzzy_adventure_query_decomposition_nlidb_term_selectors'
p56
(dp57
g6
(dp58
g8
S'fuzzy_adventure_query_decomposition_nlidb_term_selectors.html'
p59
sg10
S'fuzzy_adventure.query_decomposition.nlidb.term_selectors'
p60
sg12
g13
(g14
g15
NtRp61
(dp62
g18
I1
sg19
I0
sg20
I0
sg21
I0
sg22
I0
sg23
I0
sg24
I0
sbssg25
S'\xb0\xc8pN\xaf>\xa0\xbaz\x144\xe0A9\xb8?'
p63
ssS'fuzzy_adventure_database'
p64
(dp65
g6
(dp66
g8
S'fuzzy_adventure_database.html'
p67
sg10
S'fuzzy_adventure.database'
p68
sg12
g13
(g14
g15
NtRp69
(dp70
g18
I1
sg19
I0
sg20
I0
sg21
I0
sg22
I0
sg23
I0
sg24
I0
sbssg25
S'\xb0\xc8pN\xaf>\xa0\xbaz\x144\xe0A9\xb8?'
p71
ssS'fuzzy_adventure_context_based_data'
p72
(dp73
g6
(dp74
g8
S'fuzzy_adventure_context_based_data.html'
p75
sg10
S'fuzzy_adventure.context_based_data'
p76
sg12
g13
(g14
g15
NtRp77
(dp78
g18
I1
sg19
I0
sg20
I0
sg21
I0
sg22
I0
sg23
I0
sg24
I0
sbssg25
S'\xb0\xc8pN\xaf>\xa0\xbaz\x144\xe0A9\xb8?'
p79
ssS'_usr_local_lib_python2_7_dist-packages_nose_suite'
p80
(dp81
g45
(dp82
g47
S'_usr_local_lib_python2_7_dist-packages_nose_suite.html'
p83
sg49
S'/usr/local/lib/python2.7/dist-packages/nose/suite'
p84
sg51
g13
(g14
g15
NtRp85
(dp86
g18
I1
sg19
I0
sg20
I394
sg21
I0
sg22
I0
sg23
I237
sg24
I0
sbssg54
S'\xccE7c\xcf\x91Va\x0cOw\x0f\xa5\xf6\x05k'
p87
ssS'fuzzy_adventure_database_builder'
p88
(dp89
g6
(dp90
g8
S'fuzzy_adventure_database_builder.html'
p91
sg10
S'fuzzy_adventure.database_builder'
p92
sg12
g13
(g14
g15
NtRp93
(dp94
g18
I1
sg19
I0
sg20
I0
sg21
I0
sg22
I0
sg23
I0
sg24
I0
sbssg25
S'\xb0\xc8pN\xaf>\xa0\xbaz\x144\xe0A9\xb8?'
p95
ssS'fuzzy_adventure_query_decomposition_sql_translation'
p96
(dp97
g6
(dp98
g8
S'fuzzy_adventure_query_decomposition_sql_translation.html'
p99
sg10
S'fuzzy_adventure.query_decomposition.sql_translation'
p100
sg12
g13
(g14
g15
NtRp101
(dp102
g18
I1
sg19
I0
sg20
I0
sg21
I0
sg22
I0
sg23
I0
sg24
I0
sbssg25
S'\xb0\xc8pN\xaf>\xa0\xbaz\x144\xe0A9\xb8?'
p103
ssS'fuzzy_adventure_query_decomposition'
p104
(dp105
g6
(dp106
g8
S'fuzzy_adventure_query_decomposition.html'
p107
sg10
S'fuzzy_adventure.query_decomposition'
p108
sg12
g13
(g14
g15
NtRp109
(dp110
g18
I1
sg19
I0
sg20
I0
sg21
I0
sg22
I0
sg23
I0
sg24
I0
sbssg25
S'\xb0\xc8pN\xaf>\xa0\xbaz\x144\xe0A9\xb8?'
p111
ssS'fuzzy_adventure_query_decomposition_nlidb'
p112
(dp113
g6
(dp114
g8
S'fuzzy_adventure_query_decomposition_nlidb.html'
p115
sg10
S'fuzzy_adventure.query_decomposition.nlidb'
p116
sg12
g13
(g14
g15
NtRp117
(dp118
g18
I1
sg19
I0
sg20
I0
sg21
I0
sg22
I0
sg23
I0
sg24
I0
sbssg25
S'\xb0\xc8pN\xaf>\xa0\xbaz\x144\xe0A9\xb8?'
p119
ssS'_usr_local_lib_python2_7_dist-packages_nose_result'
p120
(dp121
g45
(dp122
g47
S'_usr_local_lib_python2_7_dist-packages_nose_result.html'
p123
sg49
S'/usr/local/lib/python2.7/dist-packages/nose/result'
p124
sg51
g13
(g14
g15
NtRp125
(dp126
g18
I1
sg19
I0
sg20
I131
sg21
I0
sg22
I0
sg23
I98
sg24
I0
sbssg54
S'\x06\xb0\x83\xfa\xd9c\xc8\x00\xab\x85\x8bs\xd7A\x12\x83'
p127
ssS'fuzzy_adventure_search'
p128
(dp129
g6
(dp130
g8
S'fuzzy_adventure_search.html'
p131
sg10
S'fuzzy_adventure.search'
p132
sg12
g13
(g14
g15
NtRp133
(dp134
g18
I1
sg19
I0
sg20
I0
sg21
I0
sg22
I0
sg23
I0
sg24
I0
sbssg25
S'\xb0\xc8pN\xaf>\xa0\xbaz\x144\xe0A9\xb8?'
p135
ssS'fuzzy_adventure_external'
p136
(dp137
g6
(dp138
g8
S'fuzzy_adventure_external.html'
p139
sg10
S'fuzzy_adventure.external'
p140
sg12
g13
(g14
g15
NtRp141
(dp142
g18
I1
sg19
I0
sg20
I0
sg21
I0
sg22
I0
sg23
I0
sg24
I0
sbssg25
S'\xb0\xc8pN\xaf>\xa0\xbaz\x144\xe0A9\xb8?'
p143
ssS'json'
p144
(dp145
g6
(dp146
g8
S'json.html'
p147
sg10
g144
sg12
g13
(g14
g15
NtRp148
(dp149
g18
I1
sg19
I0
sg20
I39
sg21
I0
sg22
I0
sg23
I39
sg24
I0
sbssg25
S'\xbera\x9b2*\x99S@\xe0\xcb\x8e\x86ZN6'
p150
ssS'json_encoder'
p151
(dp152
g6
(dp153
g8
S'json_encoder.html'
p154
sg10
S'json.encoder'
p155
sg12
g13
(g14
g15
NtRp156
(dp157
g18
I1
sg19
I0
sg20
I241
sg21
I0
sg22
I0
sg23
I241
sg24
I0
sbssg25
S'q\xc4\xd1\x01\xcb\xa0b\x07\x00!\xc2~\xf5\x14\xe8\xa6'
p158
ssS'fuzzy_adventure_database_builder_old'
p159
(dp160
g6
(dp161
g8
S'fuzzy_adventure_database_builder_old.html'
p162
sg10
S'fuzzy_adventure.database_builder.old'
p163
sg12
g13
(g14
g15
NtRp164
(dp165
g18
I1
sg19
I0
sg20
I0
sg21
I0
sg22
I0
sg23
I0
sg24
I0
sbssg25
S'\xb0\xc8pN\xaf>\xa0\xbaz\x144\xe0A9\xb8?'
p166
ssS'_usr_local_lib_python2_7_dist-packages_nose_plugins_errorclass'
p167
(dp168
g45
(dp169
g47
S'_usr_local_lib_python2_7_dist-packages_nose_plugins_errorclass.html'
p170
sg49
S'/usr/local/lib/python2.7/dist-packages/nose/plugins/errorclass'
p171
sg51
g13
(g14
g15
NtRp172
(dp173
g18
I1
sg19
I0
sg20
I65
sg21
I0
sg22
I0
sg23
I55
sg24
I0
sbssg54
S';\xf6\xf9\x15\xbd\xc3\xd5\xda\xad\xea\xe7~\xd6\xb3{\x11'
p174
ssS'_usr_local_lib_python2_7_dist-packages_nose_plugins_capture'
p175
(dp176
g45
(dp177
g47
S'_usr_local_lib_python2_7_dist-packages_nose_plugins_capture.html'
p178
sg49
S'/usr/local/lib/python2.7/dist-packages/nose/plugins/capture'
p179
sg51
g13
(g14
g15
NtRp180
(dp181
g18
I1
sg19
I0
sg20
I66
sg21
I0
sg22
I0
sg23
I52
sg24
I0
sbssg54
S'\xb2o\x0e\xa3ey<\xff"\xe7\t\x85\xf8y\xcc\xf5'
p182
ssS'_usr_local_lib_python2_7_dist-packages_nose_plugins_logcapture'
p183
(dp184
g45
(dp185
g47
S'_usr_local_lib_python2_7_dist-packages_nose_plugins_logcapture.html'
p186
sg49
S'/usr/local/lib/python2.7/dist-packages/nose/plugins/logcapture'
p187
sg51
g13
(g14
g15
NtRp188
(dp189
g18
I1
sg19
I0
sg20
I125
sg21
I0
sg22
I0
sg23
I110
sg24
I0
sbssg54
S'4\xda\xcdW:_b\x9d\xc9\xb5\x95:A\xa4\xae\xfe'
p190
ssS'fuzzy_adventure_hana'
p191
(dp192
g6
(dp193
g8
S'fuzzy_adventure_hana.html'
p194
sg10
S'fuzzy_adventure.hana'
p195
sg12
g13
(g14
g15
NtRp196
(dp197
g18
I1
sg19
I0
sg20
I0
sg21
I0
sg22
I0
sg23
I0
sg24
I0
sbssg25
S'\xb0\xc8pN\xaf>\xa0\xbaz\x144\xe0A9\xb8?'
p198
ssS'fuzzy_adventure_servers'
p199
(dp200
g6
(dp201
g8
S'fuzzy_adventure_servers.html'
p202
sg10
S'fuzzy_adventure.servers'
p203
sg12
g13
(g14
g15
NtRp204
(dp205
g18
I1
sg19
I0
sg20
I0
sg21
I0
sg22
I0
sg23
I0
sg24
I0
sbssg25
S'\xb0\xc8pN\xaf>\xa0\xbaz\x144\xe0A9\xb8?'
p206
ssS'_usr_local_lib_python2_7_dist-packages_nose_case'
p207
(dp208
g45
(dp209
g47
S'_usr_local_lib_python2_7_dist-packages_nose_case.html'
p210
sg49
S'/usr/local/lib/python2.7/dist-packages/nose/case'
p211
sg51
g13
(g14
g15
NtRp212
(dp213
g18
I1
sg19
I0
sg20
I204
sg21
I0
sg22
I0
sg23
I152
sg24
I0
sbssg54
S'.\xdbNT\xdb\xc8\xb6y\xb3\xe4_\x97\x1d;\x95j'
p214
ssS'_usr_local_lib_python2_7_dist-packages_nose_plugins_manager'
p215
(dp216
g45
(dp217
g47
S'_usr_local_lib_python2_7_dist-packages_nose_plugins_manager.html'
p218
sg49
S'/usr/local/lib/python2.7/dist-packages/nose/plugins/manager'
p219
sg51
g13
(g14
g15
NtRp220
(dp221
g18
I1
sg19
I0
sg20
I265
sg21
I0
sg22
I0
sg23
I219
sg24
I0
sbssg54
S'\x02"\x86\x99\xa6\xb8cKEV\xf5\xa7\x0cP\xe3-'
p222
ssS'_usr_local_lib_python2_7_dist-packages_nose_proxy'
p223
(dp224
g45
(dp225
g47
S'_usr_local_lib_python2_7_dist-packages_nose_proxy.html'
p226
sg49
S'/usr/local/lib/python2.7/dist-packages/nose/proxy'
p227
sg51
g13
(g14
g15
NtRp228
(dp229
g18
I1
sg19
I0
sg20
I108
sg21
I0
sg22
I0
sg23
I66
sg24
I0
sbssg54
S'Y\x1e\xde\xce(;W\x1f^kC\xdf#\xa6\x17\x9b'
p230
ssS'json_decoder'
p231
(dp232
g6
(dp233
g8
S'json_decoder.html'
p234
sg10
S'json.decoder'
p235
sg12
g13
(g14
g15
NtRp236
(dp237
g18
I1
sg19
I0
sg20
I216
sg21
I0
sg22
I0
sg23
I216
sg24
I0
sbssg25
S'\xa0M\xdf|\xe0\xbaD\x9ab\xf6Z\xb2+uv\x87'
p238
ssS'_usr_local_lib_python2_7_dist-packages_nose_selector'
p239
(dp240
g45
(dp241
g47
S'_usr_local_lib_python2_7_dist-packages_nose_selector.html'
p242
sg49
S'/usr/local/lib/python2.7/dist-packages/nose/selector'
p243
sg51
g13
(g14
g15
NtRp244
(dp245
g18
I1
sg19
I0
sg20
I134
sg21
I0
sg22
I0
sg23
I112
sg24
I0
sbssg54
S'Q\xaa\xdb>Euj*\xb9\r\x1a\x93%&tG'
p246
ssS'_usr_local_lib_python2_7_dist-packages_nose_util'
p247
(dp248
g45
(dp249
g47
S'_usr_local_lib_python2_7_dist-packages_nose_util.html'
p250
sg49
S'/usr/local/lib/python2.7/dist-packages/nose/util'
p251
sg51
g13
(g14
g15
NtRp252
(dp253
g18
I1
sg19
I0
sg20
I341
sg21
I0
sg22
I0
sg23
I302
sg24
I0
sbssg54
S'w\x17\x89\xf7\xea#\x12Y\xc36\xf1&;\xe5~\x1a'
p254
ssS'_usr_local_lib_python2_7_dist-packages_nose_loader'
p255
(dp256
g45
(dp257
g47
S'_usr_local_lib_python2_7_dist-packages_nose_loader.html'
p258
sg49
S'/usr/local/lib/python2.7/dist-packages/nose/loader'
p259
sg51
g13
(g14
g15
NtRp260
(dp261
g18
I1
sg19
I0
sg20
I351
sg21
I0
sg22
I0
sg23
I317
sg24
I0
sbssg54
S'\xb6z\xec2z\n\x9e\xdb\x1b\xc2\x06\x8f\x10+b\xcb'
p262
ssS'fuzzy_adventure_query_decomposition_nlp_system'
p263
(dp264
g6
(dp265
g8
S'fuzzy_adventure_query_decomposition_nlp_system.html'
p266
sg10
S'fuzzy_adventure.query_decomposition.nlp_system'
p267
sg12
g13
(g14
g15
NtRp268
(dp269
g18
I1
sg19
I0
sg20
I0
sg21
I0
sg22
I0
sg23
I0
sg24
I0
sbssg25
S'\xb0\xc8pN\xaf>\xa0\xbaz\x144\xe0A9\xb8?'
p270
ssS'fuzzy_adventure'
p271
(dp272
g6
(dp273
g8
S'fuzzy_adventure.html'
p274
sg10
g271
sg12
g13
(g14
g15
NtRp275
(dp276
g18
I1
sg19
I0
sg20
I0
sg21
I0
sg22
I0
sg23
I0
sg24
I0
sbssg25
S'\xb0\xc8pN\xaf>\xa0\xbaz\x144\xe0A9\xb8?'
p277
ssS'_usr_local_lib_python2_7_dist-packages_nose_plugins_cover'
p278
(dp279
g45
(dp280
g47
S'_usr_local_lib_python2_7_dist-packages_nose_plugins_cover.html'
p281
sg49
S'/usr/local/lib/python2.7/dist-packages/nose/plugins/cover'
p282
sg51
g13
(g14
g15
NtRp283
(dp284
g18
I1
sg19
I0
sg20
I138
sg21
I0
sg22
I0
sg23
I136
sg24
I0
sbssg54
S'kE\xfe\xcc\xf7\xf0m\x05K\xf4\x88\xb1\x17\xc90\xae'
p285
ssS'fuzzy_adventure_query_decomposition_nlidb_template_selectors'
p286
(dp287
g6
(dp288
g8
S'fuzzy_adventure_query_decomposition_nlidb_template_selectors.html'
p289
sg10
S'fuzzy_adventure.query_decomposition.nlidb.template_selectors'
p290
sg12
g13
(g14
g15
NtRp291
(dp292
g18
I1
sg19
I0
sg20
I0
sg21
I0
sg22
I0
sg23
I0
sg24
I0
sbssg25
S'\xb0\xc8pN\xaf>\xa0\xbaz\x144\xe0A9\xb8?'
p293
ssS'_usr_local_lib_python2_7_dist-packages_nose_core'
p294
(dp295
g45
(dp296
g47
S'_usr_local_lib_python2_7_dist-packages_nose_core.html'
p297
sg49
S'/usr/local/lib/python2.7/dist-packages/nose/core'
p298
sg51
g13
(g14
g15
NtRp299
(dp300
g18
I1
sg19
I0
sg20
I162
sg21
I0
sg22
I0
sg23
I140
sg24
I0
sbssg54
S'\xd4\xc9\x15\x97{2\xe6\x97i\xb8\xb9\x8a\x95R\x12+'
p301
ssS'encodings_hex_codec'
p302
(dp303
g6
(dp304
g8
S'encodings_hex_codec.html'
p305
sg10
S'encodings.hex_codec'
p306
sg12
g13
(g14
g15
NtRp307
(dp308
g18
I1
sg19
I0
sg20
I28
sg21
I0
sg22
I0
sg23
I28
sg24
I0
sbssg25
S'\xa4g4d\xd88\xd4\x16\xeb\xfbb\xac\xbc\xa1h\xc6'
p309
ssS'_usr_local_lib_python2_7_dist-packages_nose_importer'
p310
(dp311
g45
(dp312
g47
S'_usr_local_lib_python2_7_dist-packages_nose_importer.html'
p313
sg49
S'/usr/local/lib/python2.7/dist-packages/nose/importer'
p314
sg51
g13
(g14
g15
NtRp315
(dp316
g18
I1
sg19
I0
sg20
I101
sg21
I0
sg22
I0
sg23
I88
sg24
I0
sbssg54
S'`<\x95\xac\x18\xb4!\xb7\xf7\\E\xd9\xe0s\xa9\xf7'
p317
sssS'version'
p318
S'3.6'
p319
sS'settings'
p320
S'\x0f\xd0JHYv\x01n\xf0\xee\xc3\xb3\xad.\xf1\xae'
p321
sS'format'
p322
I1
s.