(dp1
S'files'
p2
(dp3
S'numpy_fft_fftpack'
p4
(dp5
S'index'
p6
(dp7
S'html_filename'
p8
S'numpy_fft_fftpack.html'
p9
sS'name'
p10
S'numpy.fft.fftpack'
p11
sS'nums'
p12
ccopy_reg
_reconstructor
p13
(ccoverage.results
Numbers
p14
c__builtin__
object
p15
NtRp16
(dp17
S'n_files'
p18
I1
sS'n_branches'
p19
I0
sS'n_statements'
p20
I108
sS'n_excluded'
p21
I0
sS'n_partial_branches'
p22
I0
sS'n_missing'
p23
I86
sS'n_missing_branches'
p24
I0
sbssS'hash'
p25
S'\xd6\xcb)N\x96\x92\x9b\xe1n\x8b\x80X\xce\x94x1'
p26
ssS'fuzzy_adventure_external_en_parser_nltk_lite_parse_pcfg'
p27
(dp28
g6
(dp29
g8
S'fuzzy_adventure_external_en_parser_nltk_lite_parse_pcfg.html'
p30
sg10
S'fuzzy_adventure.external.en.parser.nltk_lite.parse.pcfg'
p31
sg12
g13
(g14
g15
NtRp32
(dp33
g18
I1
sg19
I0
sg20
I68
sg21
I0
sg22
I0
sg23
I42
sg24
I0
sbssg25
S'\x14~\xaf\x1f\xf7\x9dF\x80\x9f\x0cF\xc3\xdd\r\xfct'
p34
ssS'numpy_ctypeslib'
p35
(dp36
g6
(dp37
g8
S'numpy_ctypeslib.html'
p38
sg10
S'numpy.ctypeslib'
p39
sg12
g13
(g14
g15
NtRp40
(dp41
g18
I1
sg19
I0
sg20
I191
sg21
I0
sg22
I0
sg23
I149
sg24
I0
sbssg25
S'\x93#\xc7,uG\xbe\xa9\xb5T?"\xdbFB='
p42
ssS'numpy_core_defchararray'
p43
(dp44
g6
(dp45
g8
S'numpy_core_defchararray.html'
p46
sg10
S'numpy.core.defchararray'
p47
sg12
g13
(g14
g15
NtRp48
(dp49
g18
I1
sg19
I0
sg20
I396
sg21
I0
sg22
I0
sg23
I259
sg24
I0
sbssg25
S'\xa1Pi\x9a`s\x0c\x80\xf2\x1b\xd5\xa5\x11\xa1\x87\xe2'
p50
ssS'django_core_files_utils'
p51
(dp52
S'index'
p53
(dp54
S'html_filename'
p55
S'django_core_files_utils.html'
p56
sS'name'
p57
S'django.core.files.utils'
p58
sS'nums'
p59
g13
(g14
g15
NtRp60
(dp61
g18
I1
sg19
I0
sg20
I19
sg21
I0
sg22
I0
sg23
I1
sg24
I0
sbssS'hash'
p62
S'\x91@)\xe4(\x81\xd6\xb8\x9b\x16\xc4\xeeh\x11e\xff'
p63
ssS'en_quantify'
p64
(dp65
g6
(dp66
g8
S'en_quantify.html'
p67
sg10
S'en.quantify'
p68
sg12
g13
(g14
g15
NtRp69
(dp70
g18
I1
sg19
I0
sg20
I81
sg21
I0
sg22
I0
sg23
I72
sg24
I0
sbssg25
S'\xbe\x96u\n\xb7\xbd0\xa0a\x00U;\x1co&5'
p71
ssS'en_parser_nltk_lite'
p72
(dp73
g6
(dp74
g8
S'en_parser_nltk_lite.html'
p75
sg10
S'en.parser.nltk_lite'
p76
sg12
g13
(g14
g15
NtRp77
(dp78
g18
I1
sg19
I0
sg20
I11
sg21
I0
sg22
I0
sg23
I0
sg24
I0
sbssg25
S'm}4\x0b\x8f\x14\xcf\x8cQ\xc6\x8f\xf2\xc3\x10\xb0-'
p79
ssS'django_core_files_temp'
p80
(dp81
g53
(dp82
g55
S'django_core_files_temp.html'
p83
sg57
S'django.core.files.temp'
p84
sg59
g13
(g14
g15
NtRp85
(dp86
g18
I1
sg19
I0
sg20
I28
sg21
I0
sg22
I0
sg23
I21
sg24
I0
sbssg62
S'\x14%Z\x18\x8e\x18K\xa3Y\x1f\xa7\x988\xdc)X'
p87
ssS'simplejson_scanner'
p88
(dp89
g53
(dp90
g55
S'simplejson_scanner.html'
p91
sg57
S'simplejson.scanner'
p92
sg59
g13
(g14
g15
NtRp93
(dp94
g18
I1
sg19
I0
sg20
I60
sg21
I0
sg22
I0
sg23
I50
sg24
I0
sbssg62
S'\xa1\xda\x8e\xf4\x94Ue\x16g\xb3\x8d\x98\xfe\xdaw\x03'
p95
ssS'numpy__import_tools'
p96
(dp97
g6
(dp98
g8
S'numpy__import_tools.html'
p99
sg10
S'numpy._import_tools'
p100
sg12
g13
(g14
g15
NtRp101
(dp102
g18
I1
sg19
I0
sg20
I223
sg21
I0
sg22
I0
sg23
I203
sg24
I0
sbssg25
S'E\x12QGy\xdfX\x90\x91\xe7\x9a\xce^E\xb6y'
p103
ssS'en_parser_nltk_lite_stem'
p104
(dp105
g6
(dp106
g8
S'en_parser_nltk_lite_stem.html'
p107
sg10
S'en.parser.nltk_lite.stem'
p108
sg12
g13
(g14
g15
NtRp109
(dp110
g18
I1
sg19
I0
sg20
I7
sg21
I0
sg22
I0
sg23
I1
sg24
I0
sbssg25
S'\xcc\xec\x06\xac\xe0HP\x1frb<}{^\x9e\xfc'
p111
ssS'django_http_utils'
p112
(dp113
g53
(dp114
g55
S'django_http_utils.html'
p115
sg57
S'django.http.utils'
p116
sg59
g13
(g14
g15
NtRp117
(dp118
g18
I1
sg19
I0
sg20
I39
sg21
I0
sg22
I0
sg23
I35
sg24
I0
sbssg62
S"\xbb\xc3'\xa8C\x18g\x9cz\x03V\xe9i\xd4'Y"
p119
ssS'_usr_local_lib_python2_7_dist-packages_nose_plugins_errorclass'
p120
(dp121
S'index'
p122
(dp123
S'html_filename'
p124
S'_usr_local_lib_python2_7_dist-packages_nose_plugins_errorclass.html'
p125
sS'name'
p126
S'/usr/local/lib/python2.7/dist-packages/nose/plugins/errorclass'
p127
sS'nums'
p128
g13
(g14
g15
NtRp129
(dp130
g18
I1
sg19
I0
sg20
I65
sg21
I0
sg22
I0
sg23
I55
sg24
I0
sbssS'hash'
p131
S';\xf6\xf9\x15\xbd\xc3\xd5\xda\xad\xea\xe7~\xd6\xb3{\x11'
p132
ssS'SocketServer'
p133
(dp134
g53
(dp135
g55
S'SocketServer.html'
p136
sg57
g133
sg59
g13
(g14
g15
NtRp137
(dp138
g18
I1
sg19
I0
sg20
I234
sg21
I0
sg22
I0
sg23
I234
sg24
I0
sbssg62
S'|\x0f\xccsFe\xabn\xad\x17?^\xfc\x08\x9c\xcc'
p139
ssS'fuzzy_adventure_external_en_parser_nltk_lite_draw_cfg'
p140
(dp141
g6
(dp142
g8
S'fuzzy_adventure_external_en_parser_nltk_lite_draw_cfg.html'
p143
sg10
S'fuzzy_adventure.external.en.parser.nltk_lite.draw.cfg'
p144
sg12
g13
(g14
g15
NtRp145
(dp146
g18
I1
sg19
I0
sg20
I349
sg21
I0
sg22
I0
sg23
I293
sg24
I0
sbssg25
S'\xa9\x0b\x0b\xf6\\\x90\x82=\x06;\x8e\x084g\x93\n'
p147
ssS'django_core_files_uploadedfile'
p148
(dp149
g53
(dp150
g55
S'django_core_files_uploadedfile.html'
p151
sg57
S'django.core.files.uploadedfile'
p152
sg59
g13
(g14
g15
NtRp153
(dp154
g18
I1
sg19
I0
sg20
I63
sg21
I0
sg22
I0
sg23
I34
sg24
I0
sbssg62
S'yv\x0b\xbdw\xa4\xc6\xdf\xafC\xedY\xae\xd2\xc2\xda'
p155
ssS'_usr_local_lib_python2_7_dist-packages_nose_proxy'
p156
(dp157
g122
(dp158
g124
S'_usr_local_lib_python2_7_dist-packages_nose_proxy.html'
p159
sg126
S'/usr/local/lib/python2.7/dist-packages/nose/proxy'
p160
sg128
g13
(g14
g15
NtRp161
(dp162
g18
I1
sg19
I0
sg20
I108
sg21
I0
sg22
I0
sg23
I66
sg24
I0
sbssg131
S'Y\x1e\xde\xce(;W\x1f^kC\xdf#\xa6\x17\x9b'
p163
ssS'numpy_linalg'
p164
(dp165
g6
(dp166
g8
S'numpy_linalg.html'
p167
sg10
S'numpy.linalg'
p168
sg12
g13
(g14
g15
NtRp169
(dp170
g18
I1
sg19
I0
sg20
I5
sg21
I0
sg22
I0
sg23
I0
sg24
I0
sbssg25
S'\xf7\x04\xd6\xf8\xd0\xbd\xa0\xefKao3\x01\x92\x1cW'
p171
ssS'numpy_core_fromnumeric'
p172
(dp173
g6
(dp174
g8
S'numpy_core_fromnumeric.html'
p175
sg10
S'numpy.core.fromnumeric'
p176
sg12
g13
(g14
g15
NtRp177
(dp178
g18
I1
sg19
I0
sg20
I287
sg21
I0
sg22
I0
sg23
I232
sg24
I0
sbssg25
S'\xc7\xec\x0b\x1cZ\xf3\xa5m\xa6q\xad\xa1C)5['
p179
ssS'fuzzy_adventure_external_en_parser_nltk_lite_stem_porter'
p180
(dp181
g6
(dp182
g8
S'fuzzy_adventure_external_en_parser_nltk_lite_stem_porter.html'
p183
sg10
S'fuzzy_adventure.external.en.parser.nltk_lite.stem.porter'
p184
sg12
g13
(g14
g15
NtRp185
(dp186
g18
I1
sg19
I0
sg20
I276
sg21
I0
sg22
I0
sg23
I248
sg24
I0
sbssg25
S'\xf3\x0c\xb7\xf5\x03\xfb*Ch\x9e\xed~caz\x89'
p187
ssS'numpy_lib_index_tricks'
p188
(dp189
g6
(dp190
g8
S'numpy_lib_index_tricks.html'
p191
sg10
S'numpy.lib.index_tricks'
p192
sg12
g13
(g14
g15
NtRp193
(dp194
g18
I1
sg19
I0
sg20
I260
sg21
I0
sg22
I0
sg23
I198
sg24
I0
sbssg25
S'\x96H^!\xfd\n\xbc\xb6A\xb3e\x93q5\xa3\xcf'
p195
ssS'django_template_defaulttags'
p196
(dp197
g53
(dp198
g55
S'django_template_defaulttags.html'
p199
sg57
S'django.template.defaulttags'
p200
sg59
g13
(g14
g15
NtRp201
(dp202
g18
I1
sg19
I0
sg20
I613
sg21
I0
sg22
I0
sg23
I502
sg24
I0
sbssg62
S'g\xf1\x83\xf1&T\x08e2f\x06\xb2*A@\x87'
p203
ssS'fuzzy_adventure_external_en_singular'
p204
(dp205
g6
(dp206
g8
S'fuzzy_adventure_external_en_singular.html'
p207
sg10
S'fuzzy_adventure.external.en.singular'
p208
sg12
g13
(g14
g15
NtRp209
(dp210
g18
I1
sg19
I0
sg20
I39
sg21
I0
sg22
I0
sg23
I30
sg24
I0
sbssg25
S'\xae\xcd\xed(\x95\x0e\xc8\x89$\xf3\xb9r\xd3_\xa6W'
p211
ssS'email_message'
p212
(dp213
g53
(dp214
g55
S'email_message.html'
p215
sg57
S'email.message'
p216
sg59
g13
(g14
g15
NtRp217
(dp218
g18
I1
sg19
I0
sg20
I346
sg21
I0
sg22
I0
sg23
I346
sg24
I0
sbssg62
S'V\x18iW\xc4\xabDo\x7f\xeeo\xad^!?='
p219
ssS'tkMessageBox'
p220
(dp221
g6
(dp222
g8
S'tkMessageBox.html'
p223
sg10
g220
sg12
g13
(g14
g15
NtRp224
(dp225
g18
I1
sg19
I0
sg20
I63
sg21
I0
sg22
I0
sg23
I63
sg24
I0
sbssg25
S'\x8e\x1eG\x88}\xec\xa1"\xfdB\xb1\xfd\xe8\xe8\xdc\x11'
p226
ssS'django_core_exceptions'
p227
(dp228
g53
(dp229
g55
S'django_core_exceptions.html'
p230
sg57
S'django.core.exceptions'
p231
sg59
g13
(g14
g15
NtRp232
(dp233
g18
I1
sg19
I0
sg20
I48
sg21
I0
sg22
I0
sg23
I24
sg24
I0
sbssg62
S'a\xe3\xad\nKH\xdek\xda\xd5\x03\x9fP\x15\xc6\xc6'
p234
ssS'django_conf_global_settings'
p235
(dp236
g53
(dp237
g55
S'django_conf_global_settings.html'
p238
sg57
S'django.conf.global_settings'
p239
sg59
g13
(g14
g15
NtRp240
(dp241
g18
I1
sg19
I0
sg20
I118
sg21
I0
sg22
I0
sg23
I0
sg24
I0
sbssg62
S'\xba\x06~\xde\x10?\xd3q\xeb#i&\x19H\xe2l'
p242
ssS'numpy_polynomial_polynomial'
p243
(dp244
g6
(dp245
g8
S'numpy_polynomial_polynomial.html'
p246
sg10
S'numpy.polynomial.polynomial'
p247
sg12
g13
(g14
g15
NtRp248
(dp249
g18
I1
sg19
I0
sg20
I219
sg21
I0
sg22
I0
sg23
I191
sg24
I0
sbssg25
S'\xe2\xba\xf5\x8b\xfc7\xa7\x0f\x82h\x83a\x01\xa8\x92\xed'
p250
ssS'django_utils_simplejson'
p251
(dp252
g53
(dp253
g55
S'django_utils_simplejson.html'
p254
sg57
S'django.utils.simplejson'
p255
sg59
g13
(g14
g15
NtRp256
(dp257
g18
I1
sg19
I0
sg20
I54
sg21
I0
sg22
I0
sg23
I44
sg24
I0
sbssg62
S'\xe8\x0e\x0bp\xde%V\x0e\xfc\xa8X\x1f\xa0\x0f\xcc\xdb'
p258
ssS'en_parser_nltk_lite_draw'
p259
(dp260
g6
(dp261
g8
S'en_parser_nltk_lite_draw.html'
p262
sg10
S'en.parser.nltk_lite.draw'
p263
sg12
g13
(g14
g15
NtRp264
(dp265
g18
I1
sg19
I0
sg20
I969
sg21
I0
sg22
I0
sg23
I786
sg24
I0
sbssg25
S'\xb9\x08?\x80\xa2M6E\xc2\xf2\xad\x9aZC\xe97'
p266
ssS'ctypes__endian'
p267
(dp268
g6
(dp269
g8
S'ctypes__endian.html'
p270
sg10
S'ctypes._endian'
p271
sg12
g13
(g14
g15
NtRp272
(dp273
g18
I1
sg19
I0
sg20
I34
sg21
I0
sg22
I0
sg23
I34
sg24
I0
sbssg25
S'\xd3\xc5\x9cm~:?\xd1n]\xc0Pr\x0e\xfe\x82'
p274
ssS'numpy_compat__inspect'
p275
(dp276
g6
(dp277
g8
S'numpy_compat__inspect.html'
p278
sg10
S'numpy.compat._inspect'
p279
sg12
g13
(g14
g15
NtRp280
(dp281
g18
I1
sg19
I0
sg20
I105
sg21
I0
sg22
I0
sg23
I51
sg24
I0
sbssg25
S'\t2\xc7\xf3<\x96\x1a\x9fV\xf3\x8c\xfe3\xe1)\xfb'
p282
ssS'markupbase'
p283
(dp284
g6
(dp285
g8
S'markupbase.html'
p286
sg10
g283
sg12
g13
(g14
g15
NtRp287
(dp288
g18
I1
sg19
I0
sg20
I276
sg21
I0
sg22
I0
sg23
I276
sg24
I0
sbssg25
S'\xe4\xe0\xda\xcc\x01\xdc\xd2\x0b#\x12\xee\xa8\x18\x8d\xce\x0f'
p289
ssS'fuzzy_adventure_external_en_parser_nltk_lite_draw_srparser'
p290
(dp291
g6
(dp292
g8
S'fuzzy_adventure_external_en_parser_nltk_lite_draw_srparser.html'
p293
sg10
S'fuzzy_adventure.external.en.parser.nltk_lite.draw.srparser'
p294
sg12
g13
(g14
g15
NtRp295
(dp296
g18
I1
sg19
I0
sg20
I401
sg21
I0
sg22
I0
sg23
I355
sg24
I0
sbssg25
S'\x82\xb6\\\x1b\x9b\xb0\x03_\x81\xfa\xec\xb6\xdb\xacR\x14'
p297
ssS'numpy_polynomial_chebyshev'
p298
(dp299
g6
(dp300
g8
S'numpy_polynomial_chebyshev.html'
p301
sg10
S'numpy.polynomial.chebyshev'
p302
sg12
g13
(g14
g15
NtRp303
(dp304
g18
I1
sg19
I0
sg20
I331
sg21
I0
sg22
I0
sg23
I293
sg24
I0
sbssg25
S'\xf4\x95B\xe5\x08\xc5\xdeu*\x82H\x93Zu\x1e\xaf'
p305
ssS'numpy_version'
p306
(dp307
g6
(dp308
g8
S'numpy_version.html'
p309
sg10
S'numpy.version'
p310
sg12
g13
(g14
g15
NtRp311
(dp312
g18
I1
sg19
I0
sg20
I7
sg21
I0
sg22
I0
sg23
I1
sg24
I0
sbssg25
S'\xb9>\xd0\xa4\x18\xe9\xa5\xc4\x8c\xa8\xf6\x90\x89\x01t\xfe'
p313
ssS'django_utils_dateformat'
p314
(dp315
g53
(dp316
g55
S'django_utils_dateformat.html'
p317
sg57
S'django.utils.dateformat'
p318
sg59
g13
(g14
g15
NtRp319
(dp320
g18
I1
sg19
I0
sg20
I179
sg21
I0
sg22
I0
sg23
I119
sg24
I0
sbssg62
S'\xdc\xcf>\x08@dl\xf9\xb7\x16\x8bmQ\x05\x80?'
p321
ssS'en_parser_nltk_lite_cluster_kmeans'
p322
(dp323
g6
(dp324
g8
S'en_parser_nltk_lite_cluster_kmeans.html'
p325
sg10
S'en.parser.nltk_lite.cluster.kmeans'
p326
sg12
g13
(g14
g15
NtRp327
(dp328
g18
I1
sg19
I0
sg20
I105
sg21
I0
sg22
I0
sg23
I91
sg24
I0
sbssg25
S'<\xdf\xf4\x80\x9d~\x8e]a\\\x9b\x8e\xc3h\xdf\x86'
p329
ssS'fuzzy_adventure_external_en_tags'
p330
(dp331
g6
(dp332
g8
S'fuzzy_adventure_external_en_tags.html'
p333
sg10
S'fuzzy_adventure.external.en.tags'
p334
sg12
g13
(g14
g15
NtRp335
(dp336
g18
I1
sg19
I0
sg20
I38
sg21
I0
sg22
I0
sg23
I29
sg24
I0
sbssg25
S'\xa2\x96\xc5\xfc\xf2\x9c\xdb\x9cF\xf3\xd7\xf4\x80\xa5G\x19'
p337
ssS'fuzzy_adventure_external_en_parser'
p338
(dp339
g6
(dp340
g8
S'fuzzy_adventure_external_en_parser.html'
p341
sg10
S'fuzzy_adventure.external.en.parser'
p342
sg12
g13
(g14
g15
NtRp343
(dp344
g18
I1
sg19
I0
sg20
I148
sg21
I0
sg22
I0
sg23
I116
sg24
I0
sbssg25
S'\xbf\xef2\xa5J\xf0C\xce\xb6\x13\xe8\xecu\xe5\xd3\xc5'
p345
ssS'en_parser_nltk_lite_parse_category'
p346
(dp347
g6
(dp348
g8
S'en_parser_nltk_lite_parse_category.html'
p349
sg10
S'en.parser.nltk_lite.parse.category'
p350
sg12
g13
(g14
g15
NtRp351
(dp352
g18
I1
sg19
I0
sg20
I357
sg21
I0
sg22
I0
sg23
I300
sg24
I0
sbssg25
S'\xa0\x02q#UyT\xday7-!M\xbcm\xfa'
p353
ssS'numpy_fft'
p354
(dp355
g6
(dp356
g8
S'numpy_fft.html'
p357
sg10
S'numpy.fft'
p358
sg12
g13
(g14
g15
NtRp359
(dp360
g18
I1
sg19
I0
sg20
I6
sg21
I0
sg22
I0
sg23
I0
sg24
I0
sbssg25
S'\xfa\x0cK\x1bq\xf8\xea\xbb\xce\xa2-*\x87\xdb\xc6\x89'
p361
ssS'numpy_lib_npyio'
p362
(dp363
g6
(dp364
g8
S'numpy_lib_npyio.html'
p365
sg10
S'numpy.lib.npyio'
p366
sg12
g13
(g14
g15
NtRp367
(dp368
g18
I1
sg19
I0
sg20
I710
sg21
I0
sg22
I0
sg23
I661
sg24
I0
sbssg25
S'\x9c\xac\x8f\xec\xaa\xe8T\x96\x00\x87\xc0\xe8:\xf2\xf0\x9e'
p369
ssS'numpy_compat_py3k'
p370
(dp371
g6
(dp372
g8
S'numpy_compat_py3k.html'
p373
sg10
S'numpy.compat.py3k'
p374
sg12
g13
(g14
g15
NtRp375
(dp376
g18
I1
sg19
I0
sg20
I43
sg21
I0
sg22
I0
sg23
I29
sg24
I0
sbssg25
S'\xf0\x96\x18\x9f\xb3\xbb\xfc\xf7\xa9\x11\xde\xa7g<wi'
p377
ssS'email_mime_audio'
p378
(dp379
g53
(dp380
g55
S'email_mime_audio.html'
p381
sg57
S'email.mime.audio'
p382
sg59
g13
(g14
g15
NtRp383
(dp384
g18
I1
sg19
I0
sg20
I24
sg21
I0
sg22
I0
sg23
I24
sg24
I0
sbssg62
S'c\xb0\x1c\x86\x8a\x02\x12\xc0\x15z\xa6\x1f\xf4hro'
p385
ssS'django_utils_datetime_safe'
p386
(dp387
g53
(dp388
g55
S'django_utils_datetime_safe.html'
p389
sg57
S'django.utils.datetime_safe'
p390
sg59
g13
(g14
g15
NtRp391
(dp392
g18
I1
sg19
I0
sg20
I56
sg21
I0
sg22
I0
sg23
I42
sg24
I0
sbssg62
S'\xcf\x16v\x83I\x1c\x906G\x91=\xec\x94\xfdf\xbe'
p393
ssS'fuzzy_adventure_external_en_wordnet_wordnet'
p394
(dp395
g6
(dp396
g8
S'fuzzy_adventure_external_en_wordnet_wordnet.html'
p397
sg10
S'fuzzy_adventure.external.en.wordnet.wordnet'
p398
sg12
g13
(g14
g15
NtRp399
(dp400
g18
I1
sg19
I0
sg20
I629
sg21
I0
sg22
I0
sg23
I405
sg24
I0
sbssg25
S'$\x01e\x9d\xbey\xcc\xe0\x9d\xf97\xbaJg\x1d\xbe'
p401
ssS'numpy_compat'
p402
(dp403
g6
(dp404
g8
S'numpy_compat.html'
p405
sg10
S'numpy.compat'
p406
sg12
g13
(g14
g15
NtRp407
(dp408
g18
I1
sg19
I0
sg20
I7
sg21
I0
sg22
I0
sg23
I0
sg24
I0
sbssg25
S'\x01n/\x11n\xce\xc4oH\xa5@i\xda\xf4\xc8\xbf'
p409
ssS'fuzzy_adventure_external_en_parser_nltk_lite_parse_viterbi'
p410
(dp411
g6
(dp412
g8
S'fuzzy_adventure_external_en_parser_nltk_lite_parse_viterbi.html'
p413
sg10
S'fuzzy_adventure.external.en.parser.nltk_lite.parse.viterbi'
p414
sg12
g13
(g14
g15
NtRp415
(dp416
g18
I1
sg19
I0
sg20
I134
sg21
I0
sg22
I0
sg23
I117
sg24
I0
sbssg25
S';\xc2\x01\xc0\xfc\x06\xa4*:\xbd@\x87^V\xad\x96'
p417
ssS'django_utils_timezone'
p418
(dp419
g53
(dp420
g55
S'django_utils_timezone.html'
p421
sg57
S'django.utils.timezone'
p422
sg59
g13
(g14
g15
NtRp423
(dp424
g18
I1
sg19
I0
sg20
I110
sg21
I0
sg22
I0
sg23
I70
sg24
I0
sbssg62
S'T4\rH\xb3W\x84}*v/\x16\xdbEL\xc8'
p425
ssS'fuzzy_adventure_external_en_parser_nltk_lite_stem'
p426
(dp427
g6
(dp428
g8
S'fuzzy_adventure_external_en_parser_nltk_lite_stem.html'
p429
sg10
S'fuzzy_adventure.external.en.parser.nltk_lite.stem'
p430
sg12
g13
(g14
g15
NtRp431
(dp432
g18
I1
sg19
I0
sg20
I7
sg21
I0
sg22
I0
sg23
I1
sg24
I0
sbssg25
S'\xcc\xec\x06\xac\xe0HP\x1frb<}{^\x9e\xfc'
p433
ssS'fuzzy_adventure_query_decomposition'
p434
(dp435
S'index'
p436
(dp437
S'html_filename'
p438
S'fuzzy_adventure_query_decomposition.html'
p439
sS'name'
p440
S'fuzzy_adventure.query_decomposition'
p441
sS'nums'
p442
g13
(g14
g15
NtRp443
(dp444
g18
I1
sg19
I0
sg20
I0
sg21
I0
sg22
I0
sg23
I0
sg24
I0
sbssS'hash'
p445
S'\xb0\xc8pN\xaf>\xa0\xbaz\x144\xe0A9\xb8?'
p446
ssS'django_utils_text'
p447
(dp448
g53
(dp449
g55
S'django_utils_text.html'
p450
sg57
S'django.utils.text'
p451
sg59
g13
(g14
g15
NtRp452
(dp453
g18
I1
sg19
I0
sg20
I210
sg21
I0
sg22
I0
sg23
I158
sg24
I0
sbssg62
S'\'\x8f\xf8?\xbc\xc41"\xb0\x17\x14V"\x98\x1a\x8e'
p454
ssS'en_parser_nltk_lite_etree_ElementPath'
p455
(dp456
g6
(dp457
g8
S'en_parser_nltk_lite_etree_ElementPath.html'
p458
sg10
S'en.parser.nltk_lite.etree.ElementPath'
p459
sg12
g13
(g14
g15
NtRp460
(dp461
g18
I1
sg19
I0
sg20
I97
sg21
I0
sg22
I0
sg23
I83
sg24
I0
sbssg25
S'@\xa6\x08\xd6\xa6T=\xc5\x00\xc2~H)\xe7L\xe4'
p462
ssS'numpy_lib_stride_tricks'
p463
(dp464
g6
(dp465
g8
S'numpy_lib_stride_tricks.html'
p466
sg10
S'numpy.lib.stride_tricks'
p467
sg12
g13
(g14
g15
NtRp468
(dp469
g18
I1
sg19
I0
sg20
I44
sg21
I0
sg22
I0
sg23
I38
sg24
I0
sbssg25
S'\xd7\x9e\x9f\x08 \xcd\x11\x18\xedJ\xf4s\xa3\xdd\xa9\xc6'
p470
ssS'json_encoder'
p471
(dp472
g436
(dp473
g438
S'json_encoder.html'
p474
sg440
S'json.encoder'
p475
sg442
g13
(g14
g15
NtRp476
(dp477
g18
I1
sg19
I0
sg20
I241
sg21
I0
sg22
I0
sg23
I241
sg24
I0
sbssg445
S'q\xc4\xd1\x01\xcb\xa0b\x07\x00!\xc2~\xf5\x14\xe8\xa6'
p478
ssS'en_spelling'
p479
(dp480
g6
(dp481
g8
S'en_spelling.html'
p482
sg10
S'en.spelling'
p483
sg12
g13
(g14
g15
NtRp484
(dp485
g18
I1
sg19
I0
sg20
I59
sg21
I0
sg22
I0
sg23
I38
sg24
I0
sbssg25
S'\xb9\xfb\xd4r\xfe\xbc\xdd\xd0\xf5c\xbcsDd*\xfa'
p486
ssS'en_parser_nltk_lite_draw_chart'
p487
(dp488
g6
(dp489
g8
S'en_parser_nltk_lite_draw_chart.html'
p490
sg10
S'en.parser.nltk_lite.draw.chart'
p491
sg12
g13
(g14
g15
NtRp492
(dp493
g18
I1
sg19
I0
sg20
I1290
sg21
I0
sg22
I0
sg23
I1085
sg24
I0
sbssg25
S'\xc0`\x05 jL7\xa7\x17\x00\x0e>\xb0\xb3{\xb2'
p494
ssS'numpy_core_records'
p495
(dp496
g6
(dp497
g8
S'numpy_core_records.html'
p498
sg10
S'numpy.core.records'
p499
sg12
g13
(g14
g15
NtRp500
(dp501
g18
I1
sg19
I0
sg20
I356
sg21
I0
sg22
I0
sg23
I318
sg24
I0
sbssg25
S'\xfaIC\xd8L\xc1,\xde\xce\x19\x8eqa!jo'
p502
ssS'email_mime'
p503
(dp504
g53
(dp505
g55
S'email_mime.html'
p506
sg57
S'email.mime'
p507
sg59
g13
(g14
g15
NtRp508
(dp509
g18
I1
sg19
I0
sg20
I0
sg21
I0
sg22
I0
sg23
I0
sg24
I0
sbssg62
S'\xe5P\x11)^\xf4>1D.\x0e\x0b\xa1\xf8[+'
p510
ssS'en_parser_nltk_lite_semantics'
p511
(dp512
g6
(dp513
g8
S'en_parser_nltk_lite_semantics.html'
p514
sg10
S'en.parser.nltk_lite.semantics'
p515
sg12
g13
(g14
g15
NtRp516
(dp517
g18
I1
sg19
I0
sg20
I4
sg21
I0
sg22
I0
sg23
I0
sg24
I0
sbssg25
S'P\xc9\xc5\x93\xc7\xe8\xe3\x03\xceO\x83^\x92}I\x82'
p518
ssS'_usr_local_lib_python2_7_dist-packages_nose_selector'
p519
(dp520
g122
(dp521
g124
S'_usr_local_lib_python2_7_dist-packages_nose_selector.html'
p522
sg126
S'/usr/local/lib/python2.7/dist-packages/nose/selector'
p523
sg128
g13
(g14
g15
NtRp524
(dp525
g18
I1
sg19
I0
sg20
I134
sg21
I0
sg22
I0
sg23
I112
sg24
I0
sbssg131
S'Q\xaa\xdb>Euj*\xb9\r\x1a\x93%&tG'
p526
ssS'fuzzy_adventure_external_en_ordinal'
p527
(dp528
g6
(dp529
g8
S'fuzzy_adventure_external_en_ordinal.html'
p530
sg10
S'fuzzy_adventure.external.en.ordinal'
p531
sg12
g13
(g14
g15
NtRp532
(dp533
g18
I1
sg19
I0
sg20
I12
sg21
I0
sg22
I0
sg23
I9
sg24
I0
sbssg25
S'\x19.J\xc6\xc0\xdf\xb9\x92\xbe\xc2\x96\xbfn\x17\x06\xb7'
p534
ssS'email_iterators'
p535
(dp536
g53
(dp537
g55
S'email_iterators.html'
p538
sg57
S'email.iterators'
p539
sg59
g13
(g14
g15
NtRp540
(dp541
g18
I1
sg19
I0
sg20
I32
sg21
I0
sg22
I0
sg23
I32
sg24
I0
sbssg62
S'I\xc5\x03\x19\x97\x84\xceX\x95\xb5\x87\x10\x94\x99a\x9b'
p542
ssS'django_views_debug'
p543
(dp544
g53
(dp545
g55
S'django_views_debug.html'
p546
sg57
S'django.views.debug'
p547
sg59
g13
(g14
g15
NtRp548
(dp549
g18
I1
sg19
I0
sg20
I274
sg21
I0
sg22
I0
sg23
I230
sg24
I0
sbssg62
S'E\x1f\x8e\xc1[\xc0\xa1\xf0{\xa5;G!T\xff\x9f'
p550
ssS'numbers'
p551
(dp552
g53
(dp553
g55
S'numbers.html'
p554
sg57
g551
sg59
g13
(g14
g15
NtRp555
(dp556
g18
I1
sg19
I0
sg20
I132
sg21
I0
sg22
I0
sg23
I132
sg24
I0
sbssg62
S'\x07\xa3\x8f\x89\x1b\xae\xdb\xc0\xbbN\xb3\xe8\xc0\xa7\x01f'
p557
ssS'en_parser_nltk_lite_cluster_em'
p558
(dp559
g6
(dp560
g8
S'en_parser_nltk_lite_cluster_em.html'
p561
sg10
S'en.parser.nltk_lite.cluster.em'
p562
sg12
g13
(g14
g15
NtRp563
(dp564
g18
I1
sg19
I0
sg20
I111
sg21
I0
sg22
I0
sg23
I97
sg24
I0
sbssg25
S'\xe0\x92\x01\x972\x8a\\\xfa$\\9\x85\xb5\xdd\x98x'
p565
ssS'fuzzy_adventure_query_decomposition_sql_translation'
p566
(dp567
g436
(dp568
g438
S'fuzzy_adventure_query_decomposition_sql_translation.html'
p569
sg440
S'fuzzy_adventure.query_decomposition.sql_translation'
p570
sg442
g13
(g14
g15
NtRp571
(dp572
g18
I1
sg19
I0
sg20
I0
sg21
I0
sg22
I0
sg23
I0
sg24
I0
sbssg445
S'\xb0\xc8pN\xaf>\xa0\xbaz\x144\xe0A9\xb8?'
p573
ssS'django_utils_dates'
p574
(dp575
g53
(dp576
g55
S'django_utils_dates.html'
p577
sg57
S'django.utils.dates'
p578
sg59
g13
(g14
g15
NtRp579
(dp580
g18
I1
sg19
I0
sg20
I9
sg21
I0
sg22
I0
sg23
I0
sg24
I0
sbssg62
S'\xed\xe1n\x81\x12\xc1\xc6\x8b\xd8\x98O4:mTA'
p581
ssS'django_db_utils'
p582
(dp583
g53
(dp584
g55
S'django_db_utils.html'
p585
sg57
S'django.db.utils'
p586
sg59
g13
(g14
g15
NtRp587
(dp588
g18
I1
sg19
I0
sg20
I120
sg21
I0
sg22
I0
sg23
I91
sg24
I0
sbssg62
S'\xb3\xa6y9\xe9\x14\x91D\x80N\xe3\x8aaN\x07P'
p589
ssS'django_utils_module_loading'
p590
(dp591
g53
(dp592
g55
S'django_utils_module_loading.html'
p593
sg57
S'django.utils.module_loading'
p594
sg59
g13
(g14
g15
NtRp595
(dp596
g18
I1
sg19
I0
sg20
I48
sg21
I0
sg22
I0
sg23
I44
sg24
I0
sbssg62
S'\x81\xbe\xb4\xca\xff\xe8Z\x15]\x06\xfc\xf1\xc4\xd9\x9a;'
p597
ssS'fuzzy_adventure_external_en_parser_nltk_lite_cluster_kmeans'
p598
(dp599
g6
(dp600
g8
S'fuzzy_adventure_external_en_parser_nltk_lite_cluster_kmeans.html'
p601
sg10
S'fuzzy_adventure.external.en.parser.nltk_lite.cluster.kmeans'
p602
sg12
g13
(g14
g15
NtRp603
(dp604
g18
I1
sg19
I0
sg20
I105
sg21
I0
sg22
I0
sg23
I91
sg24
I0
sbssg25
S'<\xdf\xf4\x80\x9d~\x8e]a\\\x9b\x8e\xc3h\xdf\x86'
p605
ssS'django_http'
p606
(dp607
g53
(dp608
g55
S'django_http.html'
p609
sg57
S'django.http'
p610
sg59
g13
(g14
g15
NtRp611
(dp612
g18
I1
sg19
I0
sg20
I496
sg21
I0
sg22
I0
sg23
I338
sg24
I0
sbssg62
S'\xe0\xce\xb44P2k\xd4%\xa9\xccjb\x8f@h'
p613
ssS'fuzzy_adventure_external_en_parser_nltk_lite_tokenize_regexp'
p614
(dp615
g6
(dp616
g8
S'fuzzy_adventure_external_en_parser_nltk_lite_tokenize_regexp.html'
p617
sg10
S'fuzzy_adventure.external.en.parser.nltk_lite.tokenize.regexp'
p618
sg12
g13
(g14
g15
NtRp619
(dp620
g18
I1
sg19
I0
sg20
I107
sg21
I0
sg22
I0
sg23
I86
sg24
I0
sbssg25
S'\xfc\xd4\xb1yX\xc7zzD\xf6\x88CE\xf8J\xed'
p621
ssS'numpy_lib_shape_base'
p622
(dp623
g6
(dp624
g8
S'numpy_lib_shape_base.html'
p625
sg10
S'numpy.lib.shape_base'
p626
sg12
g13
(g14
g15
NtRp627
(dp628
g18
I1
sg19
I0
sg20
I201
sg21
I0
sg22
I0
sg23
I180
sg24
I0
sbssg25
S'\xcf\xd3\x1f\xe9\xb8\xc0\xdc\xe7iY\xec\x82\xd5\xe5\xe0\xf0'
p629
ssS'fuzzy_adventure_external_en_parser_nltk_lite_draw'
p630
(dp631
g6
(dp632
g8
S'fuzzy_adventure_external_en_parser_nltk_lite_draw.html'
p633
sg10
S'fuzzy_adventure.external.en.parser.nltk_lite.draw'
p634
sg12
g13
(g14
g15
NtRp635
(dp636
g18
I1
sg19
I0
sg20
I969
sg21
I0
sg22
I0
sg23
I786
sg24
I0
sbssg25
S'\xb9\x08?\x80\xa2M6E\xc2\xf2\xad\x9aZC\xe97'
p637
ssS'fuzzy_adventure_external_en_parser_nltk_lite_cluster'
p638
(dp639
g6
(dp640
g8
S'fuzzy_adventure_external_en_parser_nltk_lite_cluster.html'
p641
sg10
S'fuzzy_adventure.external.en.parser.nltk_lite.cluster'
p642
sg12
g13
(g14
g15
NtRp643
(dp644
g18
I1
sg19
I0
sg20
I174
sg21
I0
sg22
I0
sg23
I139
sg24
I0
sbssg25
S'r`Ew\xd3\xb4\x0b\x01\xcc(#\xf0.\xfe\x03\x7f'
p645
ssS'htmlentitydefs'
p646
(dp647
g53
(dp648
g55
S'htmlentitydefs.html'
p649
sg57
g646
sg59
g13
(g14
g15
NtRp650
(dp651
g18
I1
sg19
I0
sg20
I9
sg21
I0
sg22
I0
sg23
I9
sg24
I0
sbssg62
S's\xe6\xd7kz2Lfw\x16N?[\x90~}'
p652
ssS'en_parser_nltk_lite_corpora_toolbox'
p653
(dp654
g6
(dp655
g8
S'en_parser_nltk_lite_corpora_toolbox.html'
p656
sg10
S'en.parser.nltk_lite.corpora.toolbox'
p657
sg12
g13
(g14
g15
NtRp658
(dp659
g18
I1
sg19
I0
sg20
I173
sg21
I0
sg22
I0
sg23
I145
sg24
I0
sbssg25
S'\x8b,?\xe4\xdd4)\n?\xce\x99\xd8,~\xde+'
p660
ssS'en_parser_nltk_lite_draw_rdparser'
p661
(dp662
g6
(dp663
g8
S'en_parser_nltk_lite_draw_rdparser.html'
p664
sg10
S'en.parser.nltk_lite.draw.rdparser'
p665
sg12
g13
(g14
g15
NtRp666
(dp667
g18
I1
sg19
I0
sg20
I497
sg21
I0
sg22
I0
sg23
I437
sg24
I0
sbssg25
S'\x8c\xf3\x03\xd7\xe6\xf9\x90\xe8\xdeX\x12WB\xdb\xa8K'
p668
ssS'_usr_local_lib_python2_7_dist-packages_nose_loader'
p669
(dp670
g122
(dp671
g124
S'_usr_local_lib_python2_7_dist-packages_nose_loader.html'
p672
sg126
S'/usr/local/lib/python2.7/dist-packages/nose/loader'
p673
sg128
g13
(g14
g15
NtRp674
(dp675
g18
I1
sg19
I0
sg20
I351
sg21
I0
sg22
I0
sg23
I317
sg24
I0
sbssg131
S'\xb6z\xec2z\n\x9e\xdb\x1b\xc2\x06\x8f\x10+b\xcb'
p676
ssS'email_quoprimime'
p677
(dp678
g53
(dp679
g55
S'email_quoprimime.html'
p680
sg57
S'email.quoprimime'
p681
sg59
g13
(g14
g15
NtRp682
(dp683
g18
I1
sg19
I0
sg20
I138
sg21
I0
sg22
I0
sg23
I138
sg24
I0
sbssg62
S'\\\x9eD\x1a6S\x8b\xd9t\xb2\x0e\x10r\x12\x0c\xf6'
p684
ssS'django'
p685
(dp686
g53
(dp687
g55
S'django.html'
p688
sg57
g685
sg59
g13
(g14
g15
NtRp689
(dp690
g18
I1
sg19
I0
sg20
I18
sg21
I0
sg22
I0
sg23
I6
sg24
I0
sbssg62
S'\xf0\x13?\xd9\xba.\xecb\x02\xbc\xc7\x99)\xd7:\xea'
p691
ssS'en_article'
p692
(dp693
g6
(dp694
g8
S'en_article.html'
p695
sg10
S'en.article'
p696
sg12
g13
(g14
g15
NtRp697
(dp698
g18
I1
sg19
I0
sg20
I11
sg21
I0
sg22
I0
sg23
I7
sg24
I0
sbssg25
S'n\xd5\xd7\xe6\xb0\xfbEC{\xb8\xb5\xad\xfc\x95S\x8f'
p699
ssS'fuzzy_adventure_query_decomposition_nlidb_term_selectors'
p700
(dp701
g436
(dp702
g438
S'fuzzy_adventure_query_decomposition_nlidb_term_selectors.html'
p703
sg440
S'fuzzy_adventure.query_decomposition.nlidb.term_selectors'
p704
sg442
g13
(g14
g15
NtRp705
(dp706
g18
I1
sg19
I0
sg20
I0
sg21
I0
sg22
I0
sg23
I0
sg24
I0
sbssg445
S'\xb0\xc8pN\xaf>\xa0\xbaz\x144\xe0A9\xb8?'
p707
ssS'fuzzy_adventure_external_en_parser_nltk_lite_parse_cfg'
p708
(dp709
g6
(dp710
g8
S'fuzzy_adventure_external_en_parser_nltk_lite_parse_cfg.html'
p711
sg10
S'fuzzy_adventure.external.en.parser.nltk_lite.parse.cfg'
p712
sg12
g13
(g14
g15
NtRp713
(dp714
g18
I1
sg19
I0
sg20
I133
sg21
I0
sg22
I0
sg23
I76
sg24
I0
sbssg25
S'\'\xed\x14<U\xd3t\'\x97R\xd9"\xf2\x11\xc1\xd4'
p715
ssS'email_mime_text'
p716
(dp717
g53
(dp718
g55
S'email_mime_text.html'
p719
sg57
S'email.mime.text'
p720
sg59
g13
(g14
g15
NtRp721
(dp722
g18
I1
sg19
I0
sg20
I8
sg21
I0
sg22
I0
sg23
I8
sg24
I0
sbssg62
S'4\x034Gx\xf6\xf7-l\xaf\x16\x84\xfas@p'
p723
ssS'django_utils_datastructures'
p724
(dp725
g53
(dp726
g55
S'django_utils_datastructures.html'
p727
sg57
S'django.utils.datastructures'
p728
sg59
g13
(g14
g15
NtRp729
(dp730
g18
I1
sg19
I0
sg20
I292
sg21
I0
sg22
I0
sg23
I203
sg24
I0
sbssg62
S'\xb5\xbf$\x9e\xb1\xef\xb3\xdau=\xf2\xbes\x0c\xc6\x8b'
p731
ssS'fuzzy_adventure_external_en_parser_nltk_lite_draw_chart'
p732
(dp733
g6
(dp734
g8
S'fuzzy_adventure_external_en_parser_nltk_lite_draw_chart.html'
p735
sg10
S'fuzzy_adventure.external.en.parser.nltk_lite.draw.chart'
p736
sg12
g13
(g14
g15
NtRp737
(dp738
g18
I1
sg19
I0
sg20
I1290
sg21
I0
sg22
I0
sg23
I1085
sg24
I0
sbssg25
S'\xc0`\x05 jL7\xa7\x17\x00\x0e>\xb0\xb3{\xb2'
p739
ssS'django_utils_baseconv'
p740
(dp741
g53
(dp742
g55
S'django_utils_baseconv.html'
p743
sg57
S'django.utils.baseconv'
p744
sg59
g13
(g14
g15
NtRp745
(dp746
g18
I1
sg19
I0
sg20
I48
sg21
I0
sg22
I0
sg23
I25
sg24
I0
sbssg62
S'1\xe8\xf6U\x98C\xe4\x99\x17*\xe3\xe1\x86\xeej\x0b'
p747
ssS'sgmllib'
p748
(dp749
g6
(dp750
g8
S'sgmllib.html'
p751
sg10
g748
sg12
g13
(g14
g15
NtRp752
(dp753
g18
I1
sg19
I0
sg20
I365
sg21
I0
sg22
I0
sg23
I365
sg24
I0
sbssg25
S'\x00Z3C\xd3tR\x17T\xbf\x01\xd3\x1d\xff\xd7\xeb'
p754
ssS'numpy_ma_extras'
p755
(dp756
g6
(dp757
g8
S'numpy_ma_extras.html'
p758
sg10
S'numpy.ma.extras'
p759
sg12
g13
(g14
g15
NtRp760
(dp761
g18
I1
sg19
I0
sg20
I616
sg21
I0
sg22
I0
sg23
I534
sg24
I0
sbssg25
S'G\x0e\xc5\x15\x99\xcf\xacw\xb0\xda\xaaG\\gs\xdf'
p762
ssS'django_utils_html'
p763
(dp764
g53
(dp765
g55
S'django_utils_html.html'
p766
sg57
S'django.utils.html'
p767
sg59
g13
(g14
g15
NtRp768
(dp769
g18
I1
sg19
I0
sg20
I133
sg21
I0
sg22
I0
sg23
I89
sg24
I0
sbssg62
S'\x16y \nh\x14<P\x87\x1b0\x11\xeeh]\xec'
p770
ssS'en_parser_nltk_lite_evaluate'
p771
(dp772
g6
(dp773
g8
S'en_parser_nltk_lite_evaluate.html'
p774
sg10
S'en.parser.nltk_lite.evaluate'
p775
sg12
g13
(g14
g15
NtRp776
(dp777
g18
I1
sg19
I0
sg20
I118
sg21
I0
sg22
I0
sg23
I102
sg24
I0
sbssg25
S"\x9c'\xd4\xdd\x1f\x14uI[\xa3e\x9a\x1f|\x86c"
p778
ssS'numpy_polynomial_polyutils'
p779
(dp780
g6
(dp781
g8
S'numpy_polynomial_polyutils.html'
p782
sg10
S'numpy.polynomial.polyutils'
p783
sg12
g13
(g14
g15
NtRp784
(dp785
g18
I1
sg19
I0
sg20
I73
sg21
I0
sg22
I0
sg23
I53
sg24
I0
sbssg25
S'+\\&(l\rH v\x19\xb4\xc3\tH\x98\xde'
p786
ssS'email_parser'
p787
(dp788
g53
(dp789
g55
S'email_parser.html'
p790
sg57
S'email.parser'
p791
sg59
g13
(g14
g15
NtRp792
(dp793
g18
I1
sg19
I0
sg20
I44
sg21
I0
sg22
I0
sg23
I44
sg24
I0
sbssg62
S'\xeb\x9b\xb0\xbd"\xf9\xae+\xfc\x9dQ\xdf\x97\xa4*\x92'
p794
ssS'django_core_files_base'
p795
(dp796
g53
(dp797
g55
S'django_core_files_base.html'
p798
sg57
S'django.core.files.base'
p799
sg59
g13
(g14
g15
NtRp800
(dp801
g18
I1
sg19
I0
sg20
I90
sg21
I0
sg22
I0
sg23
I59
sg24
I0
sbssg62
S'w\x89\xd9X\xe9\xd8\xac\x9b\xd1\xb9\xbc\xa3\xe5\xa3\xa1x'
p802
ssS'numpy_fft_info'
p803
(dp804
g6
(dp805
g8
S'numpy_fft_info.html'
p806
sg10
S'numpy.fft.info'
p807
sg12
g13
(g14
g15
NtRp808
(dp809
g18
I1
sg19
I0
sg20
I1
sg21
I0
sg22
I0
sg23
I0
sg24
I0
sbssg25
S'|!,\xd7\xf0.qG\xd4\xebN}\x9d\xdc\x17\x14'
p810
ssS'numpy_polynomial_laguerre'
p811
(dp812
g6
(dp813
g8
S'numpy_polynomial_laguerre.html'
p814
sg10
S'numpy.polynomial.laguerre'
p815
sg12
g13
(g14
g15
NtRp816
(dp817
g18
I1
sg19
I0
sg20
I282
sg21
I0
sg22
I0
sg23
I252
sg24
I0
sbssg25
S'\xaeR\xb1\xd1K\xd6(\xcf\xce,P\xbbc\x86\x05\xb0'
p818
ssS'en_plural'
p819
(dp820
g6
(dp821
g8
S'en_plural.html'
p822
sg10
S'en.plural'
p823
sg12
g13
(g14
g15
NtRp824
(dp825
g18
I1
sg19
I0
sg20
I42
sg21
I0
sg22
I0
sg23
I34
sg24
I0
sbssg25
S'X\xb9\x9e&\xbc5\xf8/\x9a\xb2\xee\x9e5#\x1cv'
p826
ssS'decimal'
p827
(dp828
g53
(dp829
g55
S'decimal.html'
p830
sg57
g827
sg59
g13
(g14
g15
NtRp831
(dp832
g18
I1
sg19
I0
sg20
I2486
sg21
I0
sg22
I0
sg23
I2486
sg24
I0
sbssg62
S'\xb0\xdb#\xeb\xa2\x92\xe9\xad\xe4f\xc3=e\xb5\xb0\xc1'
p833
ssS'en_parser_nltk_lite_tag'
p834
(dp835
g6
(dp836
g8
S'en_parser_nltk_lite_tag.html'
p837
sg10
S'en.parser.nltk_lite.tag'
p838
sg12
g13
(g14
g15
NtRp839
(dp840
g18
I1
sg19
I0
sg20
I57
sg21
I0
sg22
I0
sg23
I35
sg24
I0
sbssg25
S't\xb8\x1cm\x8b2\xc8\xcdO]\xff\x08]\x92\x11\xe7'
p841
ssS'django_utils_regex_helper'
p842
(dp843
g53
(dp844
g55
S'django_utils_regex_helper.html'
p845
sg57
S'django.utils.regex_helper'
p846
sg59
g13
(g14
g15
NtRp847
(dp848
g18
I1
sg19
I0
sg20
I185
sg21
I0
sg22
I0
sg23
I175
sg24
I0
sbssg62
S'2\x17q\n3`<\x0f\xce\x8az\xb4\xd1\xc7s7'
p849
ssS'email_mime_nonmultipart'
p850
(dp851
g53
(dp852
g55
S'email_mime_nonmultipart.html'
p853
sg57
S'email.mime.nonmultipart'
p854
sg59
g13
(g14
g15
NtRp855
(dp856
g18
I1
sg19
I0
sg20
I7
sg21
I0
sg22
I0
sg23
I7
sg24
I0
sbssg62
S"\x8a\x8ep\x94\xe3pq\xbc\xd6\xb6\xde'h!\x1c\xfc"
p857
ssS'en'
p858
(dp859
g6
(dp860
g8
S'en.html'
p861
sg10
g858
sg12
g13
(g14
g15
NtRp862
(dp863
g18
I1
sg19
I0
sg20
I135
sg21
I0
sg22
I0
sg23
I47
sg24
I0
sbssg25
S'\xc4\xd2\xfae\x86\x0e\xa4 \xc8\\!2\xae\x1aKg'
p864
ssS'en_parser'
p865
(dp866
g6
(dp867
g8
S'en_parser.html'
p868
sg10
S'en.parser'
p869
sg12
g13
(g14
g15
NtRp870
(dp871
g18
I1
sg19
I0
sg20
I148
sg21
I0
sg22
I0
sg23
I116
sg24
I0
sbssg25
S'\xbf\xef2\xa5J\xf0C\xce\xb6\x13\xe8\xecu\xe5\xd3\xc5'
p872
ssS'fuzzy_adventure'
p873
(dp874
g436
(dp875
g438
S'fuzzy_adventure.html'
p876
sg440
g873
sg442
g13
(g14
g15
NtRp877
(dp878
g18
I1
sg19
I0
sg20
I0
sg21
I0
sg22
I0
sg23
I0
sg24
I0
sbssg445
S'\xb0\xc8pN\xaf>\xa0\xbaz\x144\xe0A9\xb8?'
p879
ssS'fuzzy_adventure_external_en_parser_nltk_lite_semantics_utilities'
p880
(dp881
g6
(dp882
g8
S'fuzzy_adventure_external_en_parser_nltk_lite_semantics_utilities.html'
p883
sg10
S'fuzzy_adventure.external.en.parser.nltk_lite.semantics.utilities'
p884
sg12
g13
(g14
g15
NtRp885
(dp886
g18
I1
sg19
I0
sg20
I52
sg21
I0
sg22
I0
sg23
I39
sg24
I0
sbssg25
S'\xd0\x843i\x8dt8\xbc>\x1f\x9d(\xc3xb~'
p887
ssS'fuzzy_adventure_servers'
p888
(dp889
g436
(dp890
g438
S'fuzzy_adventure_servers.html'
p891
sg440
S'fuzzy_adventure.servers'
p892
sg442
g13
(g14
g15
NtRp893
(dp894
g18
I1
sg19
I0
sg20
I0
sg21
I0
sg22
I0
sg23
I0
sg24
I0
sbssg445
S'\xb0\xc8pN\xaf>\xa0\xbaz\x144\xe0A9\xb8?'
p895
ssS'numpy_core_shape_base'
p896
(dp897
g6
(dp898
g8
S'numpy_core_shape_base.html'
p899
sg10
S'numpy.core.shape_base'
p900
sg12
g13
(g14
g15
NtRp901
(dp902
g18
I1
sg19
I0
sg20
I46
sg21
I0
sg22
I0
sg23
I38
sg24
I0
sbssg25
S'\xd8\xea\xa8\xf9n)J\xa7\x1e\x10\xb7)\xe5[j\x96'
p903
ssS'numpy_lib_financial'
p904
(dp905
g6
(dp906
g8
S'numpy_lib_financial.html'
p907
sg10
S'numpy.lib.financial'
p908
sg12
g13
(g14
g15
NtRp909
(dp910
g18
I1
sg19
I0
sg20
I98
sg21
I0
sg22
I0
sg23
I83
sg24
I0
sbssg25
S'\xabC\xdb\x90\x94E\x18T\x82\xab\xa8\xeawy\xeb('
p911
ssS'en_parser_nltk_lite_stem_regexp'
p912
(dp913
g6
(dp914
g8
S'en_parser_nltk_lite_stem_regexp.html'
p915
sg10
S'en.parser.nltk_lite.stem.regexp'
p916
sg12
g13
(g14
g15
NtRp917
(dp918
g18
I1
sg19
I0
sg20
I23
sg21
I0
sg22
I0
sg23
I16
sg24
I0
sbssg25
S'\xe4\xb2\x11\xde\xbc\xa1\x04\xfe\t\xd7\xd2\x1b"\x81Y.'
p919
ssS'django_dispatch_saferef'
p920
(dp921
g53
(dp922
g55
S'django_dispatch_saferef.html'
p923
sg57
S'django.dispatch.saferef'
p924
sg59
g13
(g14
g15
NtRp925
(dp926
g18
I1
sg19
I0
sg20
I80
sg21
I0
sg22
I0
sg23
I62
sg24
I0
sbssg62
S'\x80u\xf3\x93\x1d\x01\xf8m\xa9^\n\xe7cW\xae\xec'
p927
ssS'django_template_smartif'
p928
(dp929
g53
(dp930
g55
S'django_template_smartif.html'
p931
sg57
S'django.template.smartif'
p932
sg59
g13
(g14
g15
NtRp933
(dp934
g18
I1
sg19
I0
sg20
I104
sg21
I0
sg22
I0
sg23
I61
sg24
I0
sbssg62
S'\xdd)I\xf1\xfb\xd4\xfe\x86hd0\x89\x8a|\xf9\x8a'
p935
ssS'fuzzy_adventure_external_en_parser_nltk_lite_tag_ngram'
p936
(dp937
g6
(dp938
g8
S'fuzzy_adventure_external_en_parser_nltk_lite_tag_ngram.html'
p939
sg10
S'fuzzy_adventure.external.en.parser.nltk_lite.tag.ngram'
p940
sg12
g13
(g14
g15
NtRp941
(dp942
g18
I1
sg19
I0
sg20
I109
sg21
I0
sg22
I0
sg23
I86
sg24
I0
sbssg25
S'\xad[\xee\x1b\xa2\xfd\x0e"F\xcc\xb2\xdeE\xa8\x7f\xd8'
p943
ssS'email_base64mime'
p944
(dp945
g53
(dp946
g55
S'email_base64mime.html'
p947
sg57
S'email.base64mime'
p948
sg59
g13
(g14
g15
NtRp949
(dp950
g18
I1
sg19
I0
sg20
I55
sg21
I0
sg22
I0
sg23
I55
sg24
I0
sbssg62
S'\xdc\x96$s"\xb8\x90\x9b\x8a\x10\xb6@\x01\xd1\x99\x80'
p951
ssS'fuzzy_adventure_external_en_verb'
p952
(dp953
g6
(dp954
g8
S'fuzzy_adventure_external_en_verb.html'
p955
sg10
S'fuzzy_adventure.external.en.verb'
p956
sg12
g13
(g14
g15
NtRp957
(dp958
g18
I1
sg19
I0
sg20
I86
sg21
I0
sg22
I0
sg23
I59
sg24
I0
sbssg25
S'\xe7\x05\xec\xb2A\x0c\x02\xf0\x94\x06 \xe2\xd5%\xc8\x1c'
p959
ssS'fuzzy_adventure_external_en_parser_nltk_lite_cluster_em'
p960
(dp961
g6
(dp962
g8
S'fuzzy_adventure_external_en_parser_nltk_lite_cluster_em.html'
p963
sg10
S'fuzzy_adventure.external.en.parser.nltk_lite.cluster.em'
p964
sg12
g13
(g14
g15
NtRp965
(dp966
g18
I1
sg19
I0
sg20
I111
sg21
I0
sg22
I0
sg23
I97
sg24
I0
sbssg25
S'\xe0\x92\x01\x972\x8a\\\xfa$\\9\x85\xb5\xdd\x98x'
p967
ssS'Tkinter'
p968
(dp969
g6
(dp970
g8
S'Tkinter.html'
p971
sg10
g968
sg12
g13
(g14
g15
NtRp972
(dp973
g18
I1
sg19
I0
sg20
I1784
sg21
I0
sg22
I0
sg23
I1784
sg24
I0
sbssg25
S't\x07\xf9\xa4\xf8I7S\xde\xcc\x01\xbe8\x13\xf9\xde'
p974
ssS'numpy_matrixlib_defmatrix'
p975
(dp976
g6
(dp977
g8
S'numpy_matrixlib_defmatrix.html'
p978
sg10
S'numpy.matrixlib.defmatrix'
p979
sg12
g13
(g14
g15
NtRp980
(dp981
g18
I1
sg19
I0
sg20
I275
sg21
I0
sg22
I0
sg23
I214
sg24
I0
sbssg25
S'J\xb1\xd7\xf7v\xc3\xf1-\xe5\xf4\xcb\x16\xca\x1d\xaak'
p982
ssS'numpy_core_getlimits'
p983
(dp984
g6
(dp985
g8
S'numpy_core_getlimits.html'
p986
sg10
S'numpy.core.getlimits'
p987
sg12
g13
(g14
g15
NtRp988
(dp989
g18
I1
sg19
I0
sg20
I124
sg21
I0
sg22
I0
sg23
I89
sg24
I0
sbssg25
S'\xed\x86\xc9Q\xd7 \x8a\xb5\x04\xa0\x1e\x9c\xa6\xb9!\xe5'
p990
ssS'_usr_local_lib_python2_7_dist-packages_nose_case'
p991
(dp992
g122
(dp993
g124
S'_usr_local_lib_python2_7_dist-packages_nose_case.html'
p994
sg126
S'/usr/local/lib/python2.7/dist-packages/nose/case'
p995
sg128
g13
(g14
g15
NtRp996
(dp997
g18
I1
sg19
I0
sg20
I204
sg21
I0
sg22
I0
sg23
I152
sg24
I0
sbssg131
S'.\xdbNT\xdb\xc8\xb6y\xb3\xe4_\x97\x1d;\x95j'
p998
ssS'django_conf'
p999
(dp1000
g53
(dp1001
g55
S'django_conf.html'
p1002
sg57
S'django.conf'
p1003
sg59
g13
(g14
g15
NtRp1004
(dp1005
g18
I1
sg19
I0
sg20
I85
sg21
I0
sg22
I0
sg23
I45
sg24
I0
sbssg62
S'u\x16\x99^\xbc\x9b\xcf&\xa4Y\x94,^\x14Q\xef'
p1006
ssS'fuzzy_adventure_external_en_article'
p1007
(dp1008
g6
(dp1009
g8
S'fuzzy_adventure_external_en_article.html'
p1010
sg10
S'fuzzy_adventure.external.en.article'
p1011
sg12
g13
(g14
g15
NtRp1012
(dp1013
g18
I1
sg19
I0
sg20
I11
sg21
I0
sg22
I0
sg23
I7
sg24
I0
sbssg25
S'n\xd5\xd7\xe6\xb0\xfbEC{\xb8\xb5\xad\xfc\x95S\x8f'
p1014
ssS'en_parser_nltk_lite_draw_plot'
p1015
(dp1016
g6
(dp1017
g8
S'en_parser_nltk_lite_draw_plot.html'
p1018
sg10
S'en.parser.nltk_lite.draw.plot'
p1019
sg12
g13
(g14
g15
NtRp1020
(dp1021
g18
I1
sg19
I0
sg20
I457
sg21
I0
sg22
I0
sg23
I393
sg24
I0
sbssg25
S'>"#\xbf\xed\xcf\xce\x19\x7f\x0e\xe8\x84I\x1b|z'
p1022
ssS'django_utils_formats'
p1023
(dp1024
g53
(dp1025
g55
S'django_utils_formats.html'
p1026
sg57
S'django.utils.formats'
p1027
sg59
g13
(g14
g15
NtRp1028
(dp1029
g18
I1
sg19
I0
sg20
I108
sg21
I0
sg22
I0
sg23
I86
sg24
I0
sbssg62
S'oL\xe7<\x94/\x9d\xff\xbe*\xbf_\x1b\xaf\xa4\xe6'
p1030
ssS'encodings_hex_codec'
p1031
(dp1032
g436
(dp1033
g438
S'encodings_hex_codec.html'
p1034
sg440
S'encodings.hex_codec'
p1035
sg442
g13
(g14
g15
NtRp1036
(dp1037
g18
I1
sg19
I0
sg20
I28
sg21
I0
sg22
I0
sg23
I28
sg24
I0
sbssg445
S'\xa4g4d\xd88\xd4\x16\xeb\xfbb\xac\xbc\xa1h\xc6'
p1038
ssS'django_utils_safestring'
p1039
(dp1040
g53
(dp1041
g55
S'django_utils_safestring.html'
p1042
sg57
S'django.utils.safestring'
p1043
sg59
g13
(g14
g15
NtRp1044
(dp1045
g18
I1
sg19
I0
sg20
I57
sg21
I0
sg22
I0
sg23
I34
sg24
I0
sbssg62
S'\xd9\xb2:\x1fMa\x91\xa8\x85z\xd1\xe9\xaf\xabrM'
p1046
ssS'email__parseaddr'
p1047
(dp1048
g53
(dp1049
g55
S'email__parseaddr.html'
p1050
sg57
S'email._parseaddr'
p1051
sg59
g13
(g14
g15
NtRp1052
(dp1053
g18
I1
sg19
I0
sg20
I302
sg21
I0
sg22
I0
sg23
I302
sg24
I0
sbssg62
S'\xc11l\xe2\x9d.\xe7\x8b\x84Ee\xd8\xcdA{F'
p1054
ssS'django_utils_tzinfo'
p1055
(dp1056
g53
(dp1057
g55
S'django_utils_tzinfo.html'
p1058
sg57
S'django.utils.tzinfo'
p1059
sg59
g13
(g14
g15
NtRp1060
(dp1061
g18
I1
sg19
I0
sg20
I52
sg21
I0
sg22
I0
sg23
I34
sg24
I0
sbssg62
S'J\x85\xf4\xb5CA45\x13xif\xcd\x822M'
p1062
ssS'numpy_lib_type_check'
p1063
(dp1064
g6
(dp1065
g8
S'numpy_lib_type_check.html'
p1066
sg10
S'numpy.lib.type_check'
p1067
sg12
g13
(g14
g15
NtRp1068
(dp1069
g18
I1
sg19
I0
sg20
I134
sg21
I0
sg22
I0
sg23
I110
sg24
I0
sbssg25
S'\x96\x90\xc8F\xe1\xc4\xb5\xb4\xd8\xb4r\xcaajp\x97'
p1070
ssS'fuzzy_adventure_external_en_quantify'
p1071
(dp1072
g6
(dp1073
g8
S'fuzzy_adventure_external_en_quantify.html'
p1074
sg10
S'fuzzy_adventure.external.en.quantify'
p1075
sg12
g13
(g14
g15
NtRp1076
(dp1077
g18
I1
sg19
I0
sg20
I81
sg21
I0
sg22
I0
sg23
I72
sg24
I0
sbssg25
S'\xbe\x96u\n\xb7\xbd0\xa0a\x00U;\x1co&5'
p1078
ssS'fuzzy_adventure_external_en_parser_nltk_lite'
p1079
(dp1080
g6
(dp1081
g8
S'fuzzy_adventure_external_en_parser_nltk_lite.html'
p1082
sg10
S'fuzzy_adventure.external.en.parser.nltk_lite'
p1083
sg12
g13
(g14
g15
NtRp1084
(dp1085
g18
I1
sg19
I0
sg20
I11
sg21
I0
sg22
I0
sg23
I0
sg24
I0
sbssg25
S'm}4\x0b\x8f\x14\xcf\x8cQ\xc6\x8f\xf2\xc3\x10\xb0-'
p1086
ssS'en_parser_nltk_lite_semantics_logic'
p1087
(dp1088
g6
(dp1089
g8
S'en_parser_nltk_lite_semantics_logic.html'
p1090
sg10
S'en.parser.nltk_lite.semantics.logic'
p1091
sg12
g13
(g14
g15
NtRp1092
(dp1093
g18
I1
sg19
I0
sg20
I521
sg21
I0
sg22
I0
sg23
I380
sg24
I0
sbssg25
S'\xb6M\ti\x10k\xb9\xa1)2\xf2\xb1HJ\xbe\x1e'
p1094
ssS'numpy_polynomial_legendre'
p1095
(dp1096
g6
(dp1097
g8
S'numpy_polynomial_legendre.html'
p1098
sg10
S'numpy.polynomial.legendre'
p1099
sg12
g13
(g14
g15
NtRp1100
(dp1101
g18
I1
sg19
I0
sg20
I283
sg21
I0
sg22
I0
sg23
I253
sg24
I0
sbssg25
S'\x9b\x89q\xee\xe7J*PLE;Y6q\xe7\xf7'
p1102
ssS'logging_config'
p1103
(dp1104
g53
(dp1105
g55
S'logging_config.html'
p1106
sg57
S'logging.config'
p1107
sg59
g13
(g14
g15
NtRp1108
(dp1109
g18
I1
sg19
I0
sg20
I589
sg21
I0
sg22
I0
sg23
I589
sg24
I0
sbssg62
S'\\\x9f"\\^t\xaf\x93I$\x08l\xca2\x87^'
p1110
ssS'numpy_core__internal'
p1111
(dp1112
g6
(dp1113
g8
S'numpy_core__internal.html'
p1114
sg10
S'numpy.core._internal'
p1115
sg12
g13
(g14
g15
NtRp1116
(dp1117
g18
I1
sg19
I0
sg20
I377
sg21
I0
sg22
I0
sg23
I323
sg24
I0
sbssg25
S'\xc5D\xa9\x95\xf3\xa3A\xb7<,*\xdf\xa9\xef\x0c`'
p1118
ssS'numpy_lib_polynomial'
p1119
(dp1120
g6
(dp1121
g8
S'numpy_lib_polynomial.html'
p1122
sg10
S'numpy.lib.polynomial'
p1123
sg12
g13
(g14
g15
NtRp1124
(dp1125
g18
I1
sg19
I0
sg20
I370
sg21
I0
sg22
I0
sg23
I314
sg24
I0
sbssg25
S'U\x84\x19\x19\xd5\x9b\xca\xec\x03\xa9\xa5i}\xb2\xdf5'
p1126
ssS'numpy_linalg_info'
p1127
(dp1128
g6
(dp1129
g8
S'numpy_linalg_info.html'
p1130
sg10
S'numpy.linalg.info'
p1131
sg12
g13
(g14
g15
NtRp1132
(dp1133
g18
I1
sg19
I0
sg20
I1
sg21
I0
sg22
I0
sg23
I0
sg24
I0
sbssg25
S'\x1c\xbf\x8cG\xa2\x92\xd71\xa5\x0c\xfd57\xce\xb2\xd1'
p1134
ssS'numpy_lib__iotools'
p1135
(dp1136
g6
(dp1137
g8
S'numpy_lib__iotools.html'
p1138
sg10
S'numpy.lib._iotools'
p1139
sg12
g13
(g14
g15
NtRp1140
(dp1141
g18
I1
sg19
I0
sg20
I356
sg21
I0
sg22
I0
sg23
I308
sg24
I0
sbssg25
S'\xa00t\xebrgD\x92\xd9\xb9G\x1eu\xee\x99\xa5'
p1142
ssS'numpy_polynomial'
p1143
(dp1144
g6
(dp1145
g8
S'numpy_polynomial.html'
p1146
sg10
S'numpy.polynomial'
p1147
sg12
g13
(g14
g15
NtRp1148
(dp1149
g18
I1
sg19
I0
sg20
I184
sg21
I0
sg22
I0
sg23
I106
sg24
I0
sbssg25
S'|\x99\xd2uz\x06\x82\x8cl\xd8V1\x0e\x8a B'
p1150
ssS'en_parser_nltk_lite_etree_ElementTree'
p1151
(dp1152
g6
(dp1153
g8
S'en_parser_nltk_lite_etree_ElementTree.html'
p1154
sg10
S'en.parser.nltk_lite.etree.ElementTree'
p1155
sg12
g13
(g14
g15
NtRp1156
(dp1157
g18
I1
sg19
I0
sg20
I540
sg21
I0
sg22
I0
sg23
I438
sg24
I0
sbssg25
S'8/7\x84]\xc6\x03\xb0\xf7\xaac\x9b`%\xf1b'
p1158
ssS'django_core_urlresolvers'
p1159
(dp1160
g53
(dp1161
g55
S'django_core_urlresolvers.html'
p1162
sg57
S'django.core.urlresolvers'
p1163
sg59
g13
(g14
g15
NtRp1164
(dp1165
g18
I1
sg19
I0
sg20
I339
sg21
I0
sg22
I0
sg23
I269
sg24
I0
sbssg62
S'\n\xe9\xc0\x1f\x92Y\xa4\xbb\xb7\xdc!/\x03\xfdZ%'
p1166
ssS'django_core_signals'
p1167
(dp1168
g53
(dp1169
g55
S'django_core_signals.html'
p1170
sg57
S'django.core.signals'
p1171
sg59
g13
(g14
g15
NtRp1172
(dp1173
g18
I1
sg19
I0
sg20
I4
sg21
I0
sg22
I0
sg23
I0
sg24
I0
sbssg62
S'\xa8\x92\x82\x13=\x82/\x06\xba\xb2\xa6\xad\xc4o\x81\xc2'
p1174
ssS'numpy_lib'
p1175
(dp1176
g6
(dp1177
g8
S'numpy_lib.html'
p1178
sg10
S'numpy.lib'
p1179
sg12
g13
(g14
g15
NtRp1180
(dp1181
g18
I1
sg19
I0
sg20
I33
sg21
I0
sg22
I0
sg23
I0
sg24
I0
sbssg25
S'\xc1)\x7f\x816NC\x9c\xb1\xbf\xcd\xee&\xb6Y\x9b'
p1182
ssS'django_core_mail'
p1183
(dp1184
g53
(dp1185
g55
S'django_core_mail.html'
p1186
sg57
S'django.core.mail'
p1187
sg59
g13
(g14
g15
NtRp1188
(dp1189
g18
I1
sg19
I0
sg20
I38
sg21
I0
sg22
I0
sg23
I28
sg24
I0
sbssg62
S'-\x89\xe2MN\xf5\x8f\xb6\x13\x12\x0c\xa7V\xa2#\xa2'
p1190
ssS'numpy_lib_function_base'
p1191
(dp1192
g6
(dp1193
g8
S'numpy_lib_function_base.html'
p1194
sg10
S'numpy.lib.function_base'
p1195
sg12
g13
(g14
g15
NtRp1196
(dp1197
g18
I1
sg19
I0
sg20
I860
sg21
I0
sg22
I0
sg23
I777
sg24
I0
sbssg25
S'_\x85\x83\xdb\xa69\xcc\x8bL\xd2\xb4\x10\xc4>RT'
p1198
ssS'django_core_handlers_wsgi'
p1199
(dp1200
g53
(dp1201
g55
S'django_core_handlers_wsgi.html'
p1202
sg57
S'django.core.handlers.wsgi'
p1203
sg59
g13
(g14
g15
NtRp1204
(dp1205
g18
I1
sg19
I0
sg20
I142
sg21
I0
sg22
I0
sg23
I103
sg24
I0
sbssg62
S'\xa83\xcc]\xf1\xe5\xea,\xf9m+\xb2l\x89&V'
p1206
ssS'fuzzy_adventure_database'
p1207
(dp1208
g436
(dp1209
g438
S'fuzzy_adventure_database.html'
p1210
sg440
S'fuzzy_adventure.database'
p1211
sg442
g13
(g14
g15
NtRp1212
(dp1213
g18
I1
sg19
I0
sg20
I0
sg21
I0
sg22
I0
sg23
I0
sg24
I0
sbssg445
S'\xb0\xc8pN\xaf>\xa0\xbaz\x144\xe0A9\xb8?'
p1214
ssS'numpy_lib_ufunclike'
p1215
(dp1216
g6
(dp1217
g8
S'numpy_lib_ufunclike.html'
p1218
sg10
S'numpy.lib.ufunclike'
p1219
sg12
g13
(g14
g15
NtRp1220
(dp1221
g18
I1
sg19
I0
sg20
I22
sg21
I0
sg22
I0
sg23
I17
sg24
I0
sbssg25
S"\xac\xd9\xadax;\xee\xbeX'\xc9\xffc\x84#\x97"
p1222
ssS'_usr_local_lib_python2_7_dist-packages_nose_suite'
p1223
(dp1224
g122
(dp1225
g124
S'_usr_local_lib_python2_7_dist-packages_nose_suite.html'
p1226
sg126
S'/usr/local/lib/python2.7/dist-packages/nose/suite'
p1227
sg128
g13
(g14
g15
NtRp1228
(dp1229
g18
I1
sg19
I0
sg20
I394
sg21
I0
sg22
I0
sg23
I237
sg24
I0
sbssg131
S'\xccE7c\xcf\x91Va\x0cOw\x0f\xa5\xf6\x05k'
p1230
ssS'fuzzy_adventure_external_en'
p1231
(dp1232
g6
(dp1233
g8
S'fuzzy_adventure_external_en.html'
p1234
sg10
S'fuzzy_adventure.external.en'
p1235
sg12
g13
(g14
g15
NtRp1236
(dp1237
g18
I1
sg19
I0
sg20
I135
sg21
I0
sg22
I0
sg23
I47
sg24
I0
sbssg25
S'\xc4\xd2\xfae\x86\x0e\xa4 \xc8\\!2\xae\x1aKg'
p1238
ssS'fuzzy_adventure_database_builder'
p1239
(dp1240
g436
(dp1241
g438
S'fuzzy_adventure_database_builder.html'
p1242
sg440
S'fuzzy_adventure.database_builder'
p1243
sg442
g13
(g14
g15
NtRp1244
(dp1245
g18
I1
sg19
I0
sg20
I0
sg21
I0
sg22
I0
sg23
I0
sg24
I0
sbssg445
S'\xb0\xc8pN\xaf>\xa0\xbaz\x144\xe0A9\xb8?'
p1246
ssS'email_feedparser'
p1247
(dp1248
g53
(dp1249
g55
S'email_feedparser.html'
p1250
sg57
S'email.feedparser'
p1251
sg59
g13
(g14
g15
NtRp1252
(dp1253
g18
I1
sg19
I0
sg20
I306
sg21
I0
sg22
I0
sg23
I306
sg24
I0
sbssg62
S'\x83\x1bZ\xb8-\xbe\xd8\xc4\x82\xe3\xc3\xe4\xff\xa6B\xb7'
p1254
ssS'fuzzy_adventure_external_en_parser_nltk_lite_chat'
p1255
(dp1256
g6
(dp1257
g8
S'fuzzy_adventure_external_en_parser_nltk_lite_chat.html'
p1258
sg10
S'fuzzy_adventure.external.en.parser.nltk_lite.chat'
p1259
sg12
g13
(g14
g15
NtRp1260
(dp1261
g18
I1
sg19
I0
sg20
I42
sg21
I0
sg22
I0
sg23
I31
sg24
I0
sbssg25
S'\xb2\xf0oI\x08\xff\xb5\x86\x1f\xe8\xe03\xad\xfc\n\xbf'
p1262
ssS'numpy_random'
p1263
(dp1264
g6
(dp1265
g8
S'numpy_random.html'
p1266
sg10
S'numpy.random'
p1267
sg12
g13
(g14
g15
NtRp1268
(dp1269
g18
I1
sg19
I0
sg20
I9
sg21
I0
sg22
I0
sg23
I1
sg24
I0
sbssg25
S')\xd6\xb15\x1f\xbe\xe3O\xfb\x01\xc1\x84\x9b\xb96&'
p1270
ssS'django_core_files'
p1271
(dp1272
g53
(dp1273
g55
S'django_core_files.html'
p1274
sg57
S'django.core.files'
p1275
sg59
g13
(g14
g15
NtRp1276
(dp1277
g18
I1
sg19
I0
sg20
I1
sg21
I0
sg22
I0
sg23
I0
sg24
I0
sbssg62
S"\xa1\xbfiA'\x85B\x1e\xd8\xe0\x91\xe3\xf7\x86\x81\xb2"
p1278
ssS'fuzzy_adventure_external_en_parser_nltk_lite_model'
p1279
(dp1280
g6
(dp1281
g8
S'fuzzy_adventure_external_en_parser_nltk_lite_model.html'
p1282
sg10
S'fuzzy_adventure.external.en.parser.nltk_lite.model'
p1283
sg12
g13
(g14
g15
NtRp1284
(dp1285
g18
I1
sg19
I0
sg20
I11
sg21
I0
sg22
I0
sg23
I5
sg24
I0
sbssg25
S'vwbEM\xc4g\x07X\xdfr?\x9f\xa3\x06\x81'
p1286
ssS'numpy_fft_helper'
p1287
(dp1288
g6
(dp1289
g8
S'numpy_fft_helper.html'
p1290
sg10
S'numpy.fft.helper'
p1291
sg12
g13
(g14
g15
NtRp1292
(dp1293
g18
I1
sg19
I0
sg20
I42
sg21
I0
sg22
I0
sg23
I35
sg24
I0
sbssg25
S'H\x90\xf8a\x10\xe3"\xc2\x9c\xee\x8c\xe5\xd3\xe4\x18\xc4'
p1294
ssS'Tkconstants'
p1295
(dp1296
g6
(dp1297
g8
S'Tkconstants.html'
p1298
sg10
g1295
sg12
g13
(g14
g15
NtRp1299
(dp1300
g18
I1
sg19
I0
sg20
I73
sg21
I0
sg22
I0
sg23
I73
sg24
I0
sbssg25
S'\xff\x001\xc2sU\xa7\xc5\xb7\x15f\x97@o\xb9E'
p1301
ssS'numpy_core_info'
p1302
(dp1303
g6
(dp1304
g8
S'numpy_core_info.html'
p1305
sg10
S'numpy.core.info'
p1306
sg12
g13
(g14
g15
NtRp1307
(dp1308
g18
I1
sg19
I0
sg20
I3
sg21
I0
sg22
I0
sg23
I0
sg24
I0
sbssg25
S'\x8e\x01\x13L\xeaz)xB\x82\xe5\x83\xc7\xc7`+'
p1309
ssS'en_wordnet'
p1310
(dp1311
g6
(dp1312
g8
S'en_wordnet.html'
p1313
sg10
S'en.wordnet'
p1314
sg12
g13
(g14
g15
NtRp1315
(dp1316
g18
I1
sg19
I0
sg20
I142
sg21
I0
sg22
I0
sg23
I88
sg24
I0
sbssg25
S'\x1b\x11\x01\xc52\x0biN\x14S\xf2\xda\xb6\x9e\xd8\xcb'
p1317
ssS'numpy_ma'
p1318
(dp1319
g6
(dp1320
g8
S'numpy_ma.html'
p1321
sg10
S'numpy.ma'
p1322
sg12
g13
(g14
g15
NtRp1323
(dp1324
g18
I1
sg19
I0
sg20
I14
sg21
I0
sg22
I0
sg23
I0
sg24
I0
sbssg25
S'\x99O\xa2\x82\xd2\x0eS`R\xa5\xdd-\x03F[\x1a'
p1325
ssS'hmac'
p1326
(dp1327
g53
(dp1328
g55
S'hmac.html'
p1329
sg57
g1326
sg59
g13
(g14
g15
NtRp1330
(dp1331
g18
I1
sg19
I0
sg20
I54
sg21
I0
sg22
I0
sg23
I54
sg24
I0
sbssg62
S'\x15YG\xfbj\x8a?r\xec\xbc02\xeb\xd0H\xe3'
p1332
ssS'en_parser_nltk_lite_utilities'
p1333
(dp1334
g6
(dp1335
g8
S'en_parser_nltk_lite_utilities.html'
p1336
sg10
S'en.parser.nltk_lite.utilities'
p1337
sg12
g13
(g14
g15
NtRp1338
(dp1339
g18
I1
sg19
I0
sg20
I91
sg21
I0
sg22
I0
sg23
I63
sg24
I0
sbssg25
S'\xb6\x98p\x96\xbc\x8cD\x1c\xb7/\xf7\xaa\xa8q|\xd0'
p1340
ssS'tkFileDialog'
p1341
(dp1342
g6
(dp1343
g8
S'tkFileDialog.html'
p1344
sg10
g1341
sg12
g13
(g14
g15
NtRp1345
(dp1346
g18
I1
sg19
I0
sg20
I91
sg21
I0
sg22
I0
sg23
I91
sg24
I0
sbssg25
S'\x93\xc3I:\xb0\n#\xcdH\x13\x9cZ\xc4\x04\xe0\x19'
p1347
ssS'django_contrib'
p1348
(dp1349
g53
(dp1350
g55
S'django_contrib.html'
p1351
sg57
S'django.contrib'
p1352
sg59
g13
(g14
g15
NtRp1353
(dp1354
g18
I1
sg19
I0
sg20
I0
sg21
I0
sg22
I0
sg23
I0
sg24
I0
sbssg62
S'\xb0\xc8pN\xaf>\xa0\xbaz\x144\xe0A9\xb8?'
p1355
ssS'fuzzy_adventure_external_en_spelling'
p1356
(dp1357
g6
(dp1358
g8
S'fuzzy_adventure_external_en_spelling.html'
p1359
sg10
S'fuzzy_adventure.external.en.spelling'
p1360
sg12
g13
(g14
g15
NtRp1361
(dp1362
g18
I1
sg19
I0
sg20
I59
sg21
I0
sg22
I0
sg23
I38
sg24
I0
sbssg25
S'\xb9\xfb\xd4r\xfe\xbc\xdd\xd0\xf5c\xbcsDd*\xfa'
p1363
ssS'en_parser_nltk_lite_probability'
p1364
(dp1365
g6
(dp1366
g8
S'en_parser_nltk_lite_probability.html'
p1367
sg10
S'en.parser.nltk_lite.probability'
p1368
sg12
g13
(g14
g15
NtRp1369
(dp1370
g18
I1
sg19
I0
sg20
I450
sg21
I0
sg22
I0
sg23
I317
sg24
I0
sbssg25
S'\n\xef\x94g\xdd\xe3\xcc\x99\x1e\x0er\x1eO\xe3\x0b\x00'
p1371
ssS'en_parser_nltk_lite_parse_sr'
p1372
(dp1373
g6
(dp1374
g8
S'en_parser_nltk_lite_parse_sr.html'
p1375
sg10
S'en.parser.nltk_lite.parse.sr'
p1376
sg12
g13
(g14
g15
NtRp1377
(dp1378
g18
I1
sg19
I0
sg20
I139
sg21
I0
sg22
I0
sg23
I109
sg24
I0
sbssg25
S'SS\x80JU\xcf\x13\xab4\\\x1c\xd2\xac\x1e\xd8+'
p1379
ssS'en_parser_nltk_lite_tag_unigram'
p1380
(dp1381
g6
(dp1382
g8
S'en_parser_nltk_lite_tag_unigram.html'
p1383
sg10
S'en.parser.nltk_lite.tag.unigram'
p1384
sg12
g13
(g14
g15
NtRp1385
(dp1386
g18
I1
sg19
I0
sg20
I160
sg21
I0
sg22
I0
sg23
I132
sg24
I0
sbssg25
S"\xe1'\x1b\xfe\xe5\xa8\x9c\xee\x08a\xe0\xdf\xf37\x7f\r"
p1387
ssS'fuzzy_adventure_external'
p1388
(dp1389
g436
(dp1390
g438
S'fuzzy_adventure_external.html'
p1391
sg440
S'fuzzy_adventure.external'
p1392
sg442
g13
(g14
g15
NtRp1393
(dp1394
g18
I1
sg19
I0
sg20
I0
sg21
I0
sg22
I0
sg23
I0
sg24
I0
sbssg445
S'\xb0\xc8pN\xaf>\xa0\xbaz\x144\xe0A9\xb8?'
p1395
ssS'simplejson_decoder'
p1396
(dp1397
g53
(dp1398
g55
S'simplejson_decoder.html'
p1399
sg57
S'simplejson.decoder'
p1400
sg59
g13
(g14
g15
NtRp1401
(dp1402
g18
I1
sg19
I0
sg20
I238
sg21
I0
sg22
I0
sg23
I190
sg24
I0
sbssg62
S'\x11ue\x06\t\x9f\xd6\xbb4\x7fz\x85\xcd\x14Y%'
p1403
ssS'en_parser_nltk_lite_parse_featurestructure'
p1404
(dp1405
g6
(dp1406
g8
S'en_parser_nltk_lite_parse_featurestructure.html'
p1407
sg10
S'en.parser.nltk_lite.parse.featurestructure'
p1408
sg12
g13
(g14
g15
NtRp1409
(dp1410
g18
I1
sg19
I0
sg20
I593
sg21
I0
sg22
I0
sg23
I516
sg24
I0
sbssg25
S'\xc0\r\xf8I\x15\xf3\xa3\x19b\x14\x7f\x9e\xbd\x06@\x0e'
p1411
ssS'django_dispatch_dispatcher'
p1412
(dp1413
g53
(dp1414
g55
S'django_dispatch_dispatcher.html'
p1415
sg57
S'django.dispatch.dispatcher'
p1416
sg59
g13
(g14
g15
NtRp1417
(dp1418
g18
I1
sg19
I0
sg20
I101
sg21
I0
sg22
I0
sg23
I82
sg24
I0
sbssg62
S'\x96\xc6Q\xaaL\xefx\xf0\x14\xa1;ec\xfd\xe8\x05'
p1419
ssS'fuzzy_adventure_external_en_parser_nltk_lite_contrib_toolbox'
p1420
(dp1421
g6
(dp1422
g8
S'fuzzy_adventure_external_en_parser_nltk_lite_contrib_toolbox.html'
p1423
sg10
S'fuzzy_adventure.external.en.parser.nltk_lite.contrib.toolbox'
p1424
sg12
g13
(g14
g15
NtRp1425
(dp1426
g18
I1
sg19
I0
sg20
I1
sg21
I0
sg22
I0
sg23
I0
sg24
I0
sbssg25
S'\xb9$\xa2DC\xa3\xab\x16\xc4h-$\xd0\xab-L'
p1427
ssS'_usr_local_lib_python2_7_dist-packages_nose_failure'
p1428
(dp1429
g122
(dp1430
g124
S'_usr_local_lib_python2_7_dist-packages_nose_failure.html'
p1431
sg126
S'/usr/local/lib/python2.7/dist-packages/nose/failure'
p1432
sg128
g13
(g14
g15
NtRp1433
(dp1434
g18
I1
sg19
I0
sg20
I24
sg21
I0
sg22
I0
sg23
I15
sg24
I0
sbssg131
S'2&\xc2\x12\xfco\xda\x85 A>\x19\xc7Iv\x8c'
p1435
ssS'en_parser_nltk_lite_tag_brill'
p1436
(dp1437
g6
(dp1438
g8
S'en_parser_nltk_lite_tag_brill.html'
p1439
sg10
S'en.parser.nltk_lite.tag.brill'
p1440
sg12
g13
(g14
g15
NtRp1441
(dp1442
g18
I1
sg19
I0
sg20
I416
sg21
I0
sg22
I0
sg23
I348
sg24
I0
sbssg25
S"\xa0\xc1\x04\xe2\xe6\x91|@`'F\xec\xd9\xc3^6"
p1443
ssS'django_core_mail_message'
p1444
(dp1445
g53
(dp1446
g55
S'django_core_mail_message.html'
p1447
sg57
S'django.core.mail.message'
p1448
sg59
g13
(g14
g15
NtRp1449
(dp1450
g18
I1
sg19
I0
sg20
I210
sg21
I0
sg22
I0
sg23
I157
sg24
I0
sbssg62
S'\x05\xd4\xb5\xcf/\xd7O 6\xd2\x14\xcfYa\x0eS'
p1451
ssS'fuzzy_adventure_external_en_parser_nltk_lite_semantics'
p1452
(dp1453
g6
(dp1454
g8
S'fuzzy_adventure_external_en_parser_nltk_lite_semantics.html'
p1455
sg10
S'fuzzy_adventure.external.en.parser.nltk_lite.semantics'
p1456
sg12
g13
(g14
g15
NtRp1457
(dp1458
g18
I1
sg19
I0
sg20
I4
sg21
I0
sg22
I0
sg23
I0
sg24
I0
sbssg25
S'P\xc9\xc5\x93\xc7\xe8\xe3\x03\xceO\x83^\x92}I\x82'
p1459
ssS'email_mime_base'
p1460
(dp1461
g53
(dp1462
g55
S'email_mime_base.html'
p1463
sg57
S'email.mime.base'
p1464
sg59
g13
(g14
g15
NtRp1465
(dp1466
g18
I1
sg19
I0
sg20
I9
sg21
I0
sg22
I0
sg23
I9
sg24
I0
sbssg62
S'\xc7g\x00\xf1\xe9\xf5\xd1\x88\x11\xbb\x1c\xe4[}X\x8d'
p1467
ssS'calendar'
p1468
(dp1469
g53
(dp1470
g55
S'calendar.html'
p1471
sg57
g1468
sg59
g13
(g14
g15
NtRp1472
(dp1473
g18
I1
sg19
I0
sg20
I381
sg21
I0
sg22
I0
sg23
I381
sg24
I0
sbssg62
S'\xa7\nu\xee\x9b\x82\xf4\x99\x1c\xd9m\x01\xce\x89\xbbd'
p1474
ssS'numpy_ma_core'
p1475
(dp1476
g6
(dp1477
g8
S'numpy_ma_core.html'
p1478
sg10
S'numpy.ma.core'
p1479
sg12
g13
(g14
g15
NtRp1480
(dp1481
g18
I1
sg19
I0
sg20
I2301
sg21
I0
sg22
I0
sg23
I1778
sg24
I0
sbssg25
S'Q\x19\xd0\xb8\xfc\xca\x93\xb3\xf5\xaf\x93e\x1ep\xc3K'
p1482
ssS'django_template_defaultfilters'
p1483
(dp1484
g53
(dp1485
g55
S'django_template_defaultfilters.html'
p1486
sg57
S'django.template.defaultfilters'
p1487
sg59
g13
(g14
g15
NtRp1488
(dp1489
g18
I1
sg19
I0
sg20
I457
sg21
I0
sg22
I0
sg23
I326
sg24
I0
sbssg62
S'\xb8\xee\x1e9\xb8a\x93\xb8\xec\xec\xd2\x124A\xc8&'
p1490
ssS'fuzzy_adventure_query_decomposition_nlidb'
p1491
(dp1492
g436
(dp1493
g438
S'fuzzy_adventure_query_decomposition_nlidb.html'
p1494
sg440
S'fuzzy_adventure.query_decomposition.nlidb'
p1495
sg442
g13
(g14
g15
NtRp1496
(dp1497
g18
I1
sg19
I0
sg20
I0
sg21
I0
sg22
I0
sg23
I0
sg24
I0
sbssg445
S'\xb0\xc8pN\xaf>\xa0\xbaz\x144\xe0A9\xb8?'
p1498
ssS'_usr_local_lib_python2_7_dist-packages_nose_result'
p1499
(dp1500
g122
(dp1501
g124
S'_usr_local_lib_python2_7_dist-packages_nose_result.html'
p1502
sg126
S'/usr/local/lib/python2.7/dist-packages/nose/result'
p1503
sg128
g13
(g14
g15
NtRp1504
(dp1505
g18
I1
sg19
I0
sg20
I131
sg21
I0
sg22
I0
sg23
I98
sg24
I0
sbssg131
S'\x06\xb0\x83\xfa\xd9c\xc8\x00\xab\x85\x8bs\xd7A\x12\x83'
p1506
ssS'numpy_matrixlib'
p1507
(dp1508
g6
(dp1509
g8
S'numpy_matrixlib.html'
p1510
sg10
S'numpy.matrixlib'
p1511
sg12
g13
(g14
g15
NtRp1512
(dp1513
g18
I1
sg19
I0
sg20
I5
sg21
I0
sg22
I0
sg23
I0
sg24
I0
sbssg25
S'L\x94\xba\xb6E}\xc4\xd0\x87\xda\x9aD\x05\x19+O'
p1514
ssS'numpy_core_arrayprint'
p1515
(dp1516
g6
(dp1517
g8
S'numpy_core_arrayprint.html'
p1518
sg10
S'numpy.core.arrayprint'
p1519
sg12
g13
(g14
g15
NtRp1520
(dp1521
g18
I1
sg19
I0
sg20
I285
sg21
I0
sg22
I0
sg23
I243
sg24
I0
sbssg25
S'\xbc\xa276\xf7yC/p\xf6CO\xb4\xd0\xe6\x00'
p1522
ssS'email'
p1523
(dp1524
g53
(dp1525
g55
S'email.html'
p1526
sg57
g1523
sg59
g13
(g14
g15
NtRp1527
(dp1528
g18
I1
sg19
I0
sg20
I30
sg21
I0
sg22
I0
sg23
I30
sg24
I0
sbssg62
S'\xdd\xf4\x97\xdd\x85!\x1e\x9f\xfb[\xb1\xda\x83H\xabw'
p1529
ssS'en_parser_nltk_lite_parse_tree'
p1530
(dp1531
g6
(dp1532
g8
S'en_parser_nltk_lite_parse_tree.html'
p1533
sg10
S'en.parser.nltk_lite.parse.tree'
p1534
sg12
g13
(g14
g15
NtRp1535
(dp1536
g18
I1
sg19
I0
sg20
I378
sg21
I0
sg22
I0
sg23
I294
sg24
I0
sbssg25
S'7<\xd3it\x0b\xd0\xf54\xb3\n^sc\xa0\xfe'
p1537
ssS'tkFont'
p1538
(dp1539
g6
(dp1540
g8
S'tkFont.html'
p1541
sg10
g1538
sg12
g13
(g14
g15
NtRp1542
(dp1543
g18
I1
sg19
I0
sg20
I114
sg21
I0
sg22
I0
sg23
I114
sg24
I0
sbssg25
S'Y0\x10\x02\x1a>|\x07!\xcck9\x8f\xfc\xc6)'
p1544
ssS'numpy_lib_arrayterator'
p1545
(dp1546
g6
(dp1547
g8
S'numpy_lib_arrayterator.html'
p1548
sg10
S'numpy.lib.arrayterator'
p1549
sg12
g13
(g14
g15
NtRp1550
(dp1551
g18
I1
sg19
I0
sg20
I72
sg21
I0
sg22
I0
sg23
I59
sg24
I0
sbssg25
S'\x7f~\x81\x96\x1c\x93y\xe2_G\x8c\xf4\x81\xa4\x80n'
p1552
ssS'django_template'
p1553
(dp1554
g53
(dp1555
g55
S'django_template.html'
p1556
sg57
S'django.template'
p1557
sg59
g13
(g14
g15
NtRp1558
(dp1559
g18
I1
sg19
I0
sg20
I6
sg21
I0
sg22
I0
sg23
I0
sg24
I0
sbssg62
S'\xb6\xa0l\x13\xa8q\x87\r\xa8\xea\xdd\x99\xef\xf5k\xd3'
p1560
ssS'ctypes'
p1561
(dp1562
g6
(dp1563
g8
S'ctypes.html'
p1564
sg10
g1561
sg12
g13
(g14
g15
NtRp1565
(dp1566
g18
I1
sg19
I0
sg20
I335
sg21
I0
sg22
I0
sg23
I335
sg24
I0
sbssg25
S'!\xa1%\xd5c\xe9\x83\x15\xbe?]\xc7\x1b\xffE!'
p1567
ssS'en_parser_nltk_lite_tokenize_simple'
p1568
(dp1569
g6
(dp1570
g8
S'en_parser_nltk_lite_tokenize_simple.html'
p1571
sg10
S'en.parser.nltk_lite.tokenize.simple'
p1572
sg12
g13
(g14
g15
NtRp1573
(dp1574
g18
I1
sg19
I0
sg20
I26
sg21
I0
sg22
I0
sg23
I15
sg24
I0
sbssg25
S')\xd0\\\xe5\x9ej\xc3\x98gp\x87\xba\xc2c\xdf:'
p1575
ssS'django_utils_log'
p1576
(dp1577
g53
(dp1578
g55
S'django_utils_log.html'
p1579
sg57
S'django.utils.log'
p1580
sg59
g13
(g14
g15
NtRp1581
(dp1582
g18
I1
sg19
I0
sg20
I56
sg21
I0
sg22
I0
sg23
I34
sg24
I0
sbssg62
S'\xdfH-~\xea\x95\n\xb1h\xe5\x87\xddQ<\xe1\xf1'
p1583
ssS'fuzzy_adventure_external_en_wordnet'
p1584
(dp1585
g6
(dp1586
g8
S'fuzzy_adventure_external_en_wordnet.html'
p1587
sg10
S'fuzzy_adventure.external.en.wordnet'
p1588
sg12
g13
(g14
g15
NtRp1589
(dp1590
g18
I1
sg19
I0
sg20
I142
sg21
I0
sg22
I0
sg23
I88
sg24
I0
sbssg25
S'\x1b\x11\x01\xc52\x0biN\x14S\xf2\xda\xb6\x9e\xd8\xcb'
p1591
ssS'json_decoder'
p1592
(dp1593
g436
(dp1594
g438
S'json_decoder.html'
p1595
sg440
S'json.decoder'
p1596
sg442
g13
(g14
g15
NtRp1597
(dp1598
g18
I1
sg19
I0
sg20
I216
sg21
I0
sg22
I0
sg23
I216
sg24
I0
sbssg445
S'\xa0M\xdf|\xe0\xbaD\x9ab\xf6Z\xb2+uv\x87'
p1599
ssS'en_ogden'
p1600
(dp1601
g6
(dp1602
g8
S'en_ogden.html'
p1603
sg10
S'en.ogden'
p1604
sg12
g13
(g14
g15
NtRp1605
(dp1606
g18
I1
sg19
I0
sg20
I10
sg21
I0
sg22
I0
sg23
I0
sg24
I0
sbssg25
S'\xe5\x91\xaeL@\x94_0"\xa5>\x90\x9c?\x18\''
p1607
ssS'en_parser_nltk_lite_parse_grammarfile'
p1608
(dp1609
g6
(dp1610
g8
S'en_parser_nltk_lite_parse_grammarfile.html'
p1611
sg10
S'en.parser.nltk_lite.parse.grammarfile'
p1612
sg12
g13
(g14
g15
NtRp1613
(dp1614
g18
I1
sg19
I0
sg20
I54
sg21
I0
sg22
I0
sg23
I38
sg24
I0
sbssg25
S'V\xb22\xdc~\xd7q\xb9\xa9K\xd8\xcf\x1cH\xe2\xdc'
p1615
ssS'simplejson_encoder'
p1616
(dp1617
g53
(dp1618
g55
S'simplejson_encoder.html'
p1619
sg57
S'simplejson.encoder'
p1620
sg59
g13
(g14
g15
NtRp1621
(dp1622
g18
I1
sg19
I0
sg20
I271
sg21
I0
sg22
I0
sg23
I231
sg24
I0
sbssg62
S'.\x96\xe56$\x90+U\x89\x9f4\xcf\x0f\xb9$ '
p1623
ssS'en_parser_nltk_lite_parse_featurechart'
p1624
(dp1625
g6
(dp1626
g8
S'en_parser_nltk_lite_parse_featurechart.html'
p1627
sg10
S'en.parser.nltk_lite.parse.featurechart'
p1628
sg12
g13
(g14
g15
NtRp1629
(dp1630
g18
I1
sg19
I0
sg20
I140
sg21
I0
sg22
I0
sg23
I112
sg24
I0
sbssg25
S'\x0f\r\x85\x02\xfd3Z\xb9\x00\x16#|u\xe8\x06\x83'
p1631
ssS'_usr_local_lib_python2_7_dist-packages_nose_core'
p1632
(dp1633
g122
(dp1634
g124
S'_usr_local_lib_python2_7_dist-packages_nose_core.html'
p1635
sg126
S'/usr/local/lib/python2.7/dist-packages/nose/core'
p1636
sg128
g13
(g14
g15
NtRp1637
(dp1638
g18
I1
sg19
I0
sg20
I162
sg21
I0
sg22
I0
sg23
I140
sg24
I0
sbssg131
S'\xd4\xc9\x15\x97{2\xe6\x97i\xb8\xb9\x8a\x95R\x12+'
p1639
ssS'en_parser_nltk_lite_etree'
p1640
(dp1641
g6
(dp1642
g8
S'en_parser_nltk_lite_etree.html'
p1643
sg10
S'en.parser.nltk_lite.etree'
p1644
sg12
g13
(g14
g15
NtRp1645
(dp1646
g18
I1
sg19
I0
sg20
I0
sg21
I0
sg22
I0
sg23
I0
sg24
I0
sbssg25
S'\xc5\x10\x81_\xd3\xfa\x9d5\x06L\xf9\xfcP\xa9\xd9\x9f'
p1647
ssS'fuzzy_adventure_external_en_parser_nltk_lite_draw_rdparser'
p1648
(dp1649
g6
(dp1650
g8
S'fuzzy_adventure_external_en_parser_nltk_lite_draw_rdparser.html'
p1651
sg10
S'fuzzy_adventure.external.en.parser.nltk_lite.draw.rdparser'
p1652
sg12
g13
(g14
g15
NtRp1653
(dp1654
g18
I1
sg19
I0
sg20
I497
sg21
I0
sg22
I0
sg23
I437
sg24
I0
sbssg25
S'\x8c\xf3\x03\xd7\xe6\xf9\x90\xe8\xdeX\x12WB\xdb\xa8K'
p1655
ssS'_usr_local_lib_python2_7_dist-packages_nose_importer'
p1656
(dp1657
g122
(dp1658
g124
S'_usr_local_lib_python2_7_dist-packages_nose_importer.html'
p1659
sg126
S'/usr/local/lib/python2.7/dist-packages/nose/importer'
p1660
sg128
g13
(g14
g15
NtRp1661
(dp1662
g18
I1
sg19
I0
sg20
I101
sg21
I0
sg22
I0
sg23
I88
sg24
I0
sbssg131
S'`<\x95\xac\x18\xb4!\xb7\xf7\\E\xd9\xe0s\xa9\xf7'
p1663
ssS'fuzzy_adventure_external_en_parser_nltk_lite_contrib'
p1664
(dp1665
g6
(dp1666
g8
S'fuzzy_adventure_external_en_parser_nltk_lite_contrib.html'
p1667
sg10
S'fuzzy_adventure.external.en.parser.nltk_lite.contrib'
p1668
sg12
g13
(g14
g15
NtRp1669
(dp1670
g18
I1
sg19
I0
sg20
I0
sg21
I0
sg22
I0
sg23
I0
sg24
I0
sbssg25
S'\xb0\xc8pN\xaf>\xa0\xbaz\x144\xe0A9\xb8?'
p1671
ssS'en_parser_nltk_lite_parse_chunk'
p1672
(dp1673
g6
(dp1674
g8
S'en_parser_nltk_lite_parse_chunk.html'
p1675
sg10
S'en.parser.nltk_lite.parse.chunk'
p1676
sg12
g13
(g14
g15
NtRp1677
(dp1678
g18
I1
sg19
I0
sg20
I375
sg21
I0
sg22
I0
sg23
I292
sg24
I0
sbssg25
S'~\xd2\x1d\x15\x81=Zk\xae\x8f\xec9\x91\xd7\x9c\xe8'
p1679
ssS'fuzzy_adventure_database_builder_old'
p1680
(dp1681
g436
(dp1682
g438
S'fuzzy_adventure_database_builder_old.html'
p1683
sg440
S'fuzzy_adventure.database_builder.old'
p1684
sg442
g13
(g14
g15
NtRp1685
(dp1686
g18
I1
sg19
I0
sg20
I0
sg21
I0
sg22
I0
sg23
I0
sg24
I0
sbssg445
S'\xb0\xc8pN\xaf>\xa0\xbaz\x144\xe0A9\xb8?'
p1687
ssS'fuzzy_adventure_external_en_parser_nltk_lite_parse_sr'
p1688
(dp1689
g6
(dp1690
g8
S'fuzzy_adventure_external_en_parser_nltk_lite_parse_sr.html'
p1691
sg10
S'fuzzy_adventure.external.en.parser.nltk_lite.parse.sr'
p1692
sg12
g13
(g14
g15
NtRp1693
(dp1694
g18
I1
sg19
I0
sg20
I139
sg21
I0
sg22
I0
sg23
I109
sg24
I0
sbssg25
S'SS\x80JU\xcf\x13\xab4\\\x1c\xd2\xac\x1e\xd8+'
p1695
ssS'en_parser_nltk_lite_semantics_evaluate'
p1696
(dp1697
g6
(dp1698
g8
S'en_parser_nltk_lite_semantics_evaluate.html'
p1699
sg10
S'en.parser.nltk_lite.semantics.evaluate'
p1700
sg12
g13
(g14
g15
NtRp1701
(dp1702
g18
I1
sg19
I0
sg20
I498
sg21
I0
sg22
I0
sg23
I435
sg24
I0
sbssg25
S'yU\xc4\x04\x02d\x96i\x91\x0ewvJ\xef\xf7\xf2'
p1703
ssS'django_contrib_auth_signals'
p1704
(dp1705
g53
(dp1706
g55
S'django_contrib_auth_signals.html'
p1707
sg57
S'django.contrib.auth.signals'
p1708
sg59
g13
(g14
g15
NtRp1709
(dp1710
g18
I1
sg19
I0
sg20
I3
sg21
I0
sg22
I0
sg23
I0
sg24
I0
sbssg62
S'\x13\x17\x85\x98\x81\r`\x1b~4\x04;\x16\x9b%L'
p1711
ssS'numpy_polynomial_hermite_e'
p1712
(dp1713
g6
(dp1714
g8
S'numpy_polynomial_hermite_e.html'
p1715
sg10
S'numpy.polynomial.hermite_e'
p1716
sg12
g13
(g14
g15
NtRp1717
(dp1718
g18
I1
sg19
I0
sg20
I281
sg21
I0
sg22
I0
sg23
I251
sg24
I0
sbssg25
S'\x90\xe2`e\xa9\xb8E\xf74\xad>XH\xe5\xfa:'
p1719
ssS'fuzzy_adventure_query_decomposition_nlp_system'
p1720
(dp1721
g436
(dp1722
g438
S'fuzzy_adventure_query_decomposition_nlp_system.html'
p1723
sg440
S'fuzzy_adventure.query_decomposition.nlp_system'
p1724
sg442
g13
(g14
g15
NtRp1725
(dp1726
g18
I1
sg19
I0
sg20
I0
sg21
I0
sg22
I0
sg23
I0
sg24
I0
sbssg445
S'\xb0\xc8pN\xaf>\xa0\xbaz\x144\xe0A9\xb8?'
p1727
ssS'numpy_add_newdocs'
p1728
(dp1729
g6
(dp1730
g8
S'numpy_add_newdocs.html'
p1731
sg10
S'numpy.add_newdocs'
p1732
sg12
g13
(g14
g15
NtRp1733
(dp1734
g18
I1
sg19
I0
sg20
I263
sg21
I0
sg22
I0
sg23
I0
sg24
I0
sbssg25
S'{<\xae\xcb\xb6\xf6\x03\xfc\xd6\x98\xd3\x9f\x86\xda\xcb\x03'
p1735
ssS'numpy_lib_utils'
p1736
(dp1737
g6
(dp1738
g8
S'numpy_lib_utils.html'
p1739
sg10
S'numpy.lib.utils'
p1740
sg12
g13
(g14
g15
NtRp1741
(dp1742
g18
I1
sg19
I0
sg20
I514
sg21
I0
sg22
I0
sg23
I436
sg24
I0
sbssg25
S'\x05y\xfe\xab\x88\x8a@\xbf\xc7\xf6V\x02\x99ujM'
p1743
ssS'json'
p1744
(dp1745
g436
(dp1746
g438
S'json.html'
p1747
sg440
g1744
sg442
g13
(g14
g15
NtRp1748
(dp1749
g18
I1
sg19
I0
sg20
I39
sg21
I0
sg22
I0
sg23
I39
sg24
I0
sbssg445
S'\xbera\x9b2*\x99S@\xe0\xcb\x8e\x86ZN6'
p1750
ssS'numpy'
p1751
(dp1752
g6
(dp1753
g8
S'numpy.html'
p1754
sg10
g1751
sg12
g13
(g14
g15
NtRp1755
(dp1756
g18
I1
sg19
I0
sg20
I45
sg21
I0
sg22
I0
sg23
I8
sg24
I0
sbssg25
S'L\xe3\xfd\xbb*\x16\xc3z\xc9\xc3\xeb\x1e\xb1\x10\xe2\xc4'
p1757
ssS'en_singular'
p1758
(dp1759
g6
(dp1760
g8
S'en_singular.html'
p1761
sg10
S'en.singular'
p1762
sg12
g13
(g14
g15
NtRp1763
(dp1764
g18
I1
sg19
I0
sg20
I39
sg21
I0
sg22
I0
sg23
I30
sg24
I0
sbssg25
S'\xae\xcd\xed(\x95\x0e\xc8\x89$\xf3\xb9r\xd3_\xa6W'
p1765
ssS'email_mime_message'
p1766
(dp1767
g53
(dp1768
g55
S'email_mime_message.html'
p1769
sg57
S'email.mime.message'
p1770
sg59
g13
(g14
g15
NtRp1771
(dp1772
g18
I1
sg19
I0
sg20
I11
sg21
I0
sg22
I0
sg23
I11
sg24
I0
sbssg62
S'\x1fkE\x9c\x85\x13\xf0\x92\x1et]\xf6\xfd\x0fF='
p1773
ssS'email_errors'
p1774
(dp1775
g53
(dp1776
g55
S'email_errors.html'
p1777
sg57
S'email.errors'
p1778
sg59
g13
(g14
g15
NtRp1779
(dp1780
g18
I1
sg19
I0
sg20
I16
sg21
I0
sg22
I0
sg23
I16
sg24
I0
sbssg62
S"\x0f\x19\x04,\xee\xdd\xf9\xbc'XzZ\xdb\x05\x83\x9a"
p1781
ssS'fuzzy_adventure_external_en_parser_nltk_lite_parse_featurestructure'
p1782
(dp1783
g6
(dp1784
g8
S'fuzzy_adventure_external_en_parser_nltk_lite_parse_featurestructure.html'
p1785
sg10
S'fuzzy_adventure.external.en.parser.nltk_lite.parse.featurestructure'
p1786
sg12
g13
(g14
g15
NtRp1787
(dp1788
g18
I1
sg19
I0
sg20
I593
sg21
I0
sg22
I0
sg23
I516
sg24
I0
sbssg25
S'\xc0\r\xf8I\x15\xf3\xa3\x19b\x14\x7f\x9e\xbd\x06@\x0e'
p1789
ssS'pytz'
p1790
(dp1791
g53
(dp1792
g55
S'pytz.html'
p1793
sg57
g1790
sg59
g13
(g14
g15
NtRp1794
(dp1795
g18
I1
sg19
I0
sg20
I165
sg21
I0
sg22
I0
sg23
I88
sg24
I0
sbssg62
S'\x13\xb2\n\x0b\xa1\x89b",{\xeb\xb4\x17\x9b"\x12'
p1796
ssS'fuzzy_adventure_external_en_parser_nltk_lite_tag'
p1797
(dp1798
g6
(dp1799
g8
S'fuzzy_adventure_external_en_parser_nltk_lite_tag.html'
p1800
sg10
S'fuzzy_adventure.external.en.parser.nltk_lite.tag'
p1801
sg12
g13
(g14
g15
NtRp1802
(dp1803
g18
I1
sg19
I0
sg20
I57
sg21
I0
sg22
I0
sg23
I35
sg24
I0
sbssg25
S't\xb8\x1cm\x8b2\xc8\xcdO]\xff\x08]\x92\x11\xe7'
p1804
ssS'en_parser_nltk_lite_tag_ngram'
p1805
(dp1806
g6
(dp1807
g8
S'en_parser_nltk_lite_tag_ngram.html'
p1808
sg10
S'en.parser.nltk_lite.tag.ngram'
p1809
sg12
g13
(g14
g15
NtRp1810
(dp1811
g18
I1
sg19
I0
sg20
I109
sg21
I0
sg22
I0
sg23
I86
sg24
I0
sbssg25
S'\xad[\xee\x1b\xa2\xfd\x0e"F\xcc\xb2\xdeE\xa8\x7f\xd8'
p1812
ssS'en_parser_nltk_lite_tokenize'
p1813
(dp1814
g6
(dp1815
g8
S'en_parser_nltk_lite_tokenize.html'
p1816
sg10
S'en.parser.nltk_lite.tokenize'
p1817
sg12
g13
(g14
g15
NtRp1818
(dp1819
g18
I1
sg19
I0
sg20
I3
sg21
I0
sg22
I0
sg23
I0
sg24
I0
sbssg25
S'\xc4Q\x91\xf0\xe3s4\xc8\x8f\xc0\x84\x94Z\x93\xf9 '
p1820
ssS'numpy_random_info'
p1821
(dp1822
g6
(dp1823
g8
S'numpy_random_info.html'
p1824
sg10
S'numpy.random.info'
p1825
sg12
g13
(g14
g15
NtRp1826
(dp1827
g18
I1
sg19
I0
sg20
I2
sg21
I0
sg22
I0
sg23
I0
sg24
I0
sbssg25
S'\xc6\x19a,\xd9\xaf4\xac]\xc70\x1en\x11A\xea'
p1828
ssS'numpy_polynomial_polytemplate'
p1829
(dp1830
g6
(dp1831
g8
S'numpy_polynomial_polytemplate.html'
p1832
sg10
S'numpy.polynomial.polytemplate'
p1833
sg12
g13
(g14
g15
NtRp1834
(dp1835
g18
I1
sg19
I0
sg20
I6
sg21
I0
sg22
I0
sg23
I1
sg24
I0
sbssg25
S'?0\xc8\x95\xdf\xfeG\x13\xb9\xe4;\xa8\x9f\xb6\x8f\xd6'
p1836
ssS'en_rid'
p1837
(dp1838
g6
(dp1839
g8
S'en_rid.html'
p1840
sg10
S'en.rid'
p1841
sg12
g13
(g14
g15
NtRp1842
(dp1843
g18
I1
sg19
I0
sg20
I376
sg21
I0
sg22
I0
sg23
I241
sg24
I0
sbssg25
S'\xfa\x80wh\x8f\x1foe\xa1\xb9\xcf\xc7T?:\x84'
p1844
ssS'en_parser_nltk_lite_stem_porter'
p1845
(dp1846
g6
(dp1847
g8
S'en_parser_nltk_lite_stem_porter.html'
p1848
sg10
S'en.parser.nltk_lite.stem.porter'
p1849
sg12
g13
(g14
g15
NtRp1850
(dp1851
g18
I1
sg19
I0
sg20
I276
sg21
I0
sg22
I0
sg23
I248
sg24
I0
sbssg25
S'\xf3\x0c\xb7\xf5\x03\xfb*Ch\x9e\xed~caz\x89'
p1852
ssS'fuzzy_adventure_external_en_plural'
p1853
(dp1854
g6
(dp1855
g8
S'fuzzy_adventure_external_en_plural.html'
p1856
sg10
S'fuzzy_adventure.external.en.plural'
p1857
sg12
g13
(g14
g15
NtRp1858
(dp1859
g18
I1
sg19
I0
sg20
I42
sg21
I0
sg22
I0
sg23
I34
sg24
I0
sbssg25
S'X\xb9\x9e&\xbc5\xf8/\x9a\xb2\xee\x9e5#\x1cv'
p1860
ssS'encodings_string_escape'
p1861
(dp1862
g6
(dp1863
g8
S'encodings_string_escape.html'
p1864
sg10
S'encodings.string_escape'
p1865
sg12
g13
(g14
g15
NtRp1866
(dp1867
g18
I1
sg19
I0
sg20
I17
sg21
I0
sg22
I0
sg23
I17
sg24
I0
sbssg25
S"c\x98\x8f*\xfc\xe0\xe2'\x1d\x9dOj\xf7m\xb3\xca"
p1868
ssS'django_http_multipartparser'
p1869
(dp1870
g53
(dp1871
g55
S'django_http_multipartparser.html'
p1872
sg57
S'django.http.multipartparser'
p1873
sg59
g13
(g14
g15
NtRp1874
(dp1875
g18
I1
sg19
I0
sg20
I337
sg21
I0
sg22
I0
sg23
I288
sg24
I0
sbssg62
S'\xd2\xb9 \x03\xe5*`\xbd*\x88\xd9I\x92\xb4~\xbb'
p1876
ssS'io'
p1877
(dp1878
g53
(dp1879
g55
S'io.html'
p1880
sg57
g1877
sg59
g13
(g14
g15
NtRp1881
(dp1882
g18
I1
sg19
I0
sg20
I23
sg21
I0
sg22
I0
sg23
I23
sg24
I0
sbssg62
S'|\xfa\xe4\xa1\x17\xdf\xed\x90\x95\x18\xc7\xf5\xfdC\xfe\xa8'
p1883
ssS'en_tags'
p1884
(dp1885
g6
(dp1886
g8
S'en_tags.html'
p1887
sg10
S'en.tags'
p1888
sg12
g13
(g14
g15
NtRp1889
(dp1890
g18
I1
sg19
I0
sg20
I38
sg21
I0
sg22
I0
sg23
I29
sg24
I0
sbssg25
S'\xa2\x96\xc5\xfc\xf2\x9c\xdb\x9cF\xf3\xd7\xf4\x80\xa5G\x19'
p1891
ssS'email_generator'
p1892
(dp1893
g53
(dp1894
g55
S'email_generator.html'
p1895
sg57
S'email.generator'
p1896
sg59
g13
(g14
g15
NtRp1897
(dp1898
g18
I1
sg19
I0
sg20
I167
sg21
I0
sg22
I0
sg23
I167
sg24
I0
sbssg62
S"\x8e\xc7\xadw\xadV\xa8'\xe7q+\xac\x81\xa2C\xb0"
p1899
ssS'django_utils_http'
p1900
(dp1901
g53
(dp1902
g55
S'django_utils_http.html'
p1903
sg57
S'django.utils.http'
p1904
sg59
g13
(g14
g15
NtRp1905
(dp1906
g18
I1
sg19
I0
sg20
I115
sg21
I0
sg22
I0
sg23
I74
sg24
I0
sbssg62
S"\x81\x9f&\xec\x13\x05\x0b\xce\x99\x8a\xa4\x82'`\xf2\x9c"
p1907
ssS'django_utils_importlib'
p1908
(dp1909
g53
(dp1910
g55
S'django_utils_importlib.html'
p1911
sg57
S'django.utils.importlib'
p1912
sg59
g13
(g14
g15
NtRp1913
(dp1914
g18
I1
sg19
I0
sg20
I23
sg21
I0
sg22
I0
sg23
I17
sg24
I0
sbssg62
S'\xa8\x0f\xfa^\xa8\x17\xce\x9e"\xec[\\8<\xf4\xb3'
p1915
ssS'fuzzy_adventure_search'
p1916
(dp1917
g436
(dp1918
g438
S'fuzzy_adventure_search.html'
p1919
sg440
S'fuzzy_adventure.search'
p1920
sg442
g13
(g14
g15
NtRp1921
(dp1922
g18
I1
sg19
I0
sg20
I0
sg21
I0
sg22
I0
sg23
I0
sg24
I0
sbssg445
S'\xb0\xc8pN\xaf>\xa0\xbaz\x144\xe0A9\xb8?'
p1923
ssS'fuzzy_adventure_external_en_parser_nltk_lite_wordnet'
p1924
(dp1925
g6
(dp1926
g8
S'fuzzy_adventure_external_en_parser_nltk_lite_wordnet.html'
p1927
sg10
S'fuzzy_adventure.external.en.parser.nltk_lite.wordnet'
p1928
sg12
g13
(g14
g15
NtRp1929
(dp1930
g18
I1
sg19
I0
sg20
I0
sg21
I0
sg22
I0
sg23
I0
sg24
I0
sbssg25
S'\xb0\xc8pN\xaf>\xa0\xbaz\x144\xe0A9\xb8?'
p1931
ssS'django_core'
p1932
(dp1933
g53
(dp1934
g55
S'django_core.html'
p1935
sg57
S'django.core'
p1936
sg59
g13
(g14
g15
NtRp1937
(dp1938
g18
I1
sg19
I0
sg20
I0
sg21
I0
sg22
I0
sg23
I0
sg24
I0
sbssg62
S'\xb0\xc8pN\xaf>\xa0\xbaz\x144\xe0A9\xb8?'
p1939
ssS'en_parser_nltk_lite_draw_srparser'
p1940
(dp1941
g6
(dp1942
g8
S'en_parser_nltk_lite_draw_srparser.html'
p1943
sg10
S'en.parser.nltk_lite.draw.srparser'
p1944
sg12
g13
(g14
g15
NtRp1945
(dp1946
g18
I1
sg19
I0
sg20
I401
sg21
I0
sg22
I0
sg23
I355
sg24
I0
sbssg25
S'\x82\xb6\\\x1b\x9b\xb0\x03_\x81\xfa\xec\xb6\xdb\xacR\x14'
p1947
ssS'django_contrib_auth'
p1948
(dp1949
g53
(dp1950
g55
S'django_contrib_auth.html'
p1951
sg57
S'django.contrib.auth'
p1952
sg59
g13
(g14
g15
NtRp1953
(dp1954
g18
I1
sg19
I0
sg20
I73
sg21
I0
sg22
I0
sg23
I60
sg24
I0
sbssg62
S'B_M\x9d\x87\xec\xba\x84W\x9b\xf6\x96\xf9oC\x9c'
p1955
ssS'fuzzy_adventure_external_en_parser_nltk_lite_stem_regexp'
p1956
(dp1957
g6
(dp1958
g8
S'fuzzy_adventure_external_en_parser_nltk_lite_stem_regexp.html'
p1959
sg10
S'fuzzy_adventure.external.en.parser.nltk_lite.stem.regexp'
p1960
sg12
g13
(g14
g15
NtRp1961
(dp1962
g18
I1
sg19
I0
sg20
I23
sg21
I0
sg22
I0
sg23
I16
sg24
I0
sbssg25
S'\xe4\xb2\x11\xde\xbc\xa1\x04\xfe\t\xd7\xd2\x1b"\x81Y.'
p1963
ssS'en_ordinal'
p1964
(dp1965
g6
(dp1966
g8
S'en_ordinal.html'
p1967
sg10
S'en.ordinal'
p1968
sg12
g13
(g14
g15
NtRp1969
(dp1970
g18
I1
sg19
I0
sg20
I12
sg21
I0
sg22
I0
sg23
I9
sg24
I0
sbssg25
S'\x19.J\xc6\xc0\xdf\xb9\x92\xbe\xc2\x96\xbfn\x17\x06\xb7'
p1971
ssS'rfc822'
p1972
(dp1973
g53
(dp1974
g55
S'rfc822.html'
p1975
sg57
g1972
sg59
g13
(g14
g15
NtRp1976
(dp1977
g18
I1
sg19
I0
sg20
I574
sg21
I0
sg22
I0
sg23
I574
sg24
I0
sbssg62
S'\xe8]\x803\xc9\tvu\xb7\x08bj\xc6xC)'
p1978
ssS'fuzzy_adventure_external_en_ogden'
p1979
(dp1980
g6
(dp1981
g8
S'fuzzy_adventure_external_en_ogden.html'
p1982
sg10
S'fuzzy_adventure.external.en.ogden'
p1983
sg12
g13
(g14
g15
NtRp1984
(dp1985
g18
I1
sg19
I0
sg20
I10
sg21
I0
sg22
I0
sg23
I0
sg24
I0
sbssg25
S'\xe5\x91\xaeL@\x94_0"\xa5>\x90\x9c?\x18\''
p1986
ssS'fuzzy_adventure_external_en_parser_nltk_lite_draw_plot'
p1987
(dp1988
g6
(dp1989
g8
S'fuzzy_adventure_external_en_parser_nltk_lite_draw_plot.html'
p1990
sg10
S'fuzzy_adventure.external.en.parser.nltk_lite.draw.plot'
p1991
sg12
g13
(g14
g15
NtRp1992
(dp1993
g18
I1
sg19
I0
sg20
I457
sg21
I0
sg22
I0
sg23
I393
sg24
I0
sbssg25
S'>"#\xbf\xed\xcf\xce\x19\x7f\x0e\xe8\x84I\x1b|z'
p1994
ssS'numpy_lib_arraysetops'
p1995
(dp1996
g6
(dp1997
g8
S'numpy_lib_arraysetops.html'
p1998
sg10
S'numpy.lib.arraysetops'
p1999
sg12
g13
(g14
g15
NtRp2000
(dp2001
g18
I1
sg19
I0
sg20
I85
sg21
I0
sg22
I0
sg23
I75
sg24
I0
sbssg25
S'\x9e\xbe>j\x05\xc2;\xb6e\xe6\xa8\xca\x98\xaa\x07M'
p2002
ssS'django_core_files_uploadhandler'
p2003
(dp2004
g53
(dp2005
g55
S'django_core_files_uploadhandler.html'
p2006
sg57
S'django.core.files.uploadhandler'
p2007
sg59
g13
(g14
g15
NtRp2008
(dp2009
g18
I1
sg19
I0
sg20
I89
sg21
I0
sg22
I0
sg23
I54
sg24
I0
sbssg62
S'\xd7\x85G\xd1\xdc3<\xf5\xe9\xd6UF?\xc2\x90\xde'
p2010
ssS'fuzzy_adventure_external_en_parser_nltk_lite_parse_tree'
p2011
(dp2012
g6
(dp2013
g8
S'fuzzy_adventure_external_en_parser_nltk_lite_parse_tree.html'
p2014
sg10
S'fuzzy_adventure.external.en.parser.nltk_lite.parse.tree'
p2015
sg12
g13
(g14
g15
NtRp2016
(dp2017
g18
I1
sg19
I0
sg20
I378
sg21
I0
sg22
I0
sg23
I294
sg24
I0
sbssg25
S'7<\xd3it\x0b\xd0\xf54\xb3\n^sc\xa0\xfe'
p2018
ssS'en_wordnet_wntools'
p2019
(dp2020
g6
(dp2021
g8
S'en_wordnet_wntools.html'
p2022
sg10
S'en.wordnet.wntools'
p2023
sg12
g13
(g14
g15
NtRp2024
(dp2025
g18
I1
sg19
I0
sg20
I115
sg21
I0
sg22
I0
sg23
I91
sg24
I0
sbssg25
S'\xef\xde\x14AC\xb6\xb0\x90\x1c\x01K\x80D\x10\xdf\xe2'
p2026
ssS'sets'
p2027
(dp2028
g6
(dp2029
g8
S'sets.html'
p2030
sg10
g2027
sg12
g13
(g14
g15
NtRp2031
(dp2032
g18
I1
sg19
I0
sg20
I266
sg21
I0
sg22
I0
sg23
I266
sg24
I0
sbssg25
S'\x14\xcfa~c\xbb\x88\xce\xb1\x82T9\xfb\xbb3\x9d'
p2033
ssS'gzip'
p2034
(dp2035
g53
(dp2036
g55
S'gzip.html'
p2037
sg57
g2034
sg59
g13
(g14
g15
NtRp2038
(dp2039
g18
I1
sg19
I0
sg20
I317
sg21
I0
sg22
I0
sg23
I317
sg24
I0
sbssg62
S'\xc3+\xa4\xb9v"$\x0f\x19\x92\x8e@\xc0\xe2\x80\x96'
p2040
ssS'fuzzy_adventure_GUI'
p2041
(dp2042
g436
(dp2043
g438
S'fuzzy_adventure_GUI.html'
p2044
sg440
S'fuzzy_adventure.GUI'
p2045
sg442
g13
(g14
g15
NtRp2046
(dp2047
g18
I1
sg19
I0
sg20
I0
sg21
I0
sg22
I0
sg23
I0
sg24
I0
sbssg445
S'\xb0\xc8pN\xaf>\xa0\xbaz\x144\xe0A9\xb8?'
p2048
ssS'fuzzy_adventure_external_en_parser_nltk_lite_semantics_evaluate'
p2049
(dp2050
g6
(dp2051
g8
S'fuzzy_adventure_external_en_parser_nltk_lite_semantics_evaluate.html'
p2052
sg10
S'fuzzy_adventure.external.en.parser.nltk_lite.semantics.evaluate'
p2053
sg12
g13
(g14
g15
NtRp2054
(dp2055
g18
I1
sg19
I0
sg20
I498
sg21
I0
sg22
I0
sg23
I435
sg24
I0
sbssg25
S'yU\xc4\x04\x02d\x96i\x91\x0ewvJ\xef\xf7\xf2'
p2056
ssS'en_parser_nltk_lite_parse_chart'
p2057
(dp2058
g6
(dp2059
g8
S'en_parser_nltk_lite_parse_chart.html'
p2060
sg10
S'en.parser.nltk_lite.parse.chart'
p2061
sg12
g13
(g14
g15
NtRp2062
(dp2063
g18
I1
sg19
I0
sg20
I589
sg21
I0
sg22
I0
sg23
I430
sg24
I0
sbssg25
S'\xa1\x83\\eS&\x0bb\xee\xb0\x9dj]DD\xe3'
p2064
ssS'en_parser_nltk_lite_parse_viterbi'
p2065
(dp2066
g6
(dp2067
g8
S'en_parser_nltk_lite_parse_viterbi.html'
p2068
sg10
S'en.parser.nltk_lite.parse.viterbi'
p2069
sg12
g13
(g14
g15
NtRp2070
(dp2071
g18
I1
sg19
I0
sg20
I134
sg21
I0
sg22
I0
sg23
I117
sg24
I0
sbssg25
S';\xc2\x01\xc0\xfc\x06\xa4*:\xbd@\x87^V\xad\x96'
p2072
ssS'pytz_tzfile'
p2073
(dp2074
g53
(dp2075
g55
S'pytz_tzfile.html'
p2076
sg57
S'pytz.tzfile'
p2077
sg59
g13
(g14
g15
NtRp2078
(dp2079
g18
I1
sg19
I0
sg20
I73
sg21
I0
sg22
I0
sg23
I65
sg24
I0
sbssg62
S'^pY\xaa\xdfZP\xb1\xf1\xbd\xaa\x02\x1b\x89\x1f\xa1'
p2080
ssS'django_views'
p2081
(dp2082
g53
(dp2083
g55
S'django_views.html'
p2084
sg57
S'django.views'
p2085
sg59
g13
(g14
g15
NtRp2086
(dp2087
g18
I1
sg19
I0
sg20
I0
sg21
I0
sg22
I0
sg23
I0
sg24
I0
sbssg62
S'\xb0\xc8pN\xaf>\xa0\xbaz\x144\xe0A9\xb8?'
p2088
ssS'email_utils'
p2089
(dp2090
g53
(dp2091
g55
S'email_utils.html'
p2092
sg57
S'email.utils'
p2093
sg59
g13
(g14
g15
NtRp2094
(dp2095
g18
I1
sg19
I0
sg20
I155
sg21
I0
sg22
I0
sg23
I155
sg24
I0
sbssg62
S'0L\xea\xbc\xda]\x15e*\x96\xf1\xcf\xae\x8e\xfd\x93'
p2096
ssS'fuzzy_adventure_external_en_parser_nltk_lite_semantics_logic'
p2097
(dp2098
g6
(dp2099
g8
S'fuzzy_adventure_external_en_parser_nltk_lite_semantics_logic.html'
p2100
sg10
S'fuzzy_adventure.external.en.parser.nltk_lite.semantics.logic'
p2101
sg12
g13
(g14
g15
NtRp2102
(dp2103
g18
I1
sg19
I0
sg20
I521
sg21
I0
sg22
I0
sg23
I380
sg24
I0
sbssg25
S'\xb6M\ti\x10k\xb9\xa1)2\xf2\xb1HJ\xbe\x1e'
p2104
ssS'_usr_local_lib_python2_7_dist-packages_nose_plugins_capture'
p2105
(dp2106
g122
(dp2107
g124
S'_usr_local_lib_python2_7_dist-packages_nose_plugins_capture.html'
p2108
sg126
S'/usr/local/lib/python2.7/dist-packages/nose/plugins/capture'
p2109
sg128
g13
(g14
g15
NtRp2110
(dp2111
g18
I1
sg19
I0
sg20
I66
sg21
I0
sg22
I0
sg23
I52
sg24
I0
sbssg131
S'\xb2o\x0e\xa3ey<\xff"\xe7\t\x85\xf8y\xcc\xf5'
p2112
ssS'en_parser_nltk_lite_draw_tree'
p2113
(dp2114
g6
(dp2115
g8
S'en_parser_nltk_lite_draw_tree.html'
p2116
sg10
S'en.parser.nltk_lite.draw.tree'
p2117
sg12
g13
(g14
g15
NtRp2118
(dp2119
g18
I1
sg19
I0
sg20
I560
sg21
I0
sg22
I0
sg23
I505
sg24
I0
sbssg25
S'px\xa5Z\xe5\xf2\xb8\xa9\x0e\x18U\xbf\x9a\xde_\xa6'
p2120
ssS'en_numeral'
p2121
(dp2122
g6
(dp2123
g8
S'en_numeral.html'
p2124
sg10
S'en.numeral'
p2125
sg12
g13
(g14
g15
NtRp2126
(dp2127
g18
I1
sg19
I0
sg20
I58
sg21
I0
sg22
I0
sg23
I48
sg24
I0
sbssg25
S'\xe4\xc7\xe2#\xe7\x0ea\xf7P\xdc\xf1\xe5\xe7\x0e9p'
p2128
ssS'fuzzy_adventure_hana'
p2129
(dp2130
g436
(dp2131
g438
S'fuzzy_adventure_hana.html'
p2132
sg440
S'fuzzy_adventure.hana'
p2133
sg442
g13
(g14
g15
NtRp2134
(dp2135
g18
I1
sg19
I0
sg20
I0
sg21
I0
sg22
I0
sg23
I0
sg24
I0
sbssg445
S'\xb0\xc8pN\xaf>\xa0\xbaz\x144\xe0A9\xb8?'
p2136
ssS'django_dispatch'
p2137
(dp2138
g53
(dp2139
g55
S'django_dispatch.html'
p2140
sg57
S'django.dispatch'
p2141
sg59
g13
(g14
g15
NtRp2142
(dp2143
g18
I1
sg19
I0
sg20
I1
sg21
I0
sg22
I0
sg23
I0
sg24
I0
sbssg62
S'\xe9$\xa4\xf3k\xc7$G\xbe^\x9e5~A\x94\xd1'
p2144
ssS'django_core_handlers'
p2145
(dp2146
g53
(dp2147
g55
S'django_core_handlers.html'
p2148
sg57
S'django.core.handlers'
p2149
sg59
g13
(g14
g15
NtRp2150
(dp2151
g18
I1
sg19
I0
sg20
I0
sg21
I0
sg22
I0
sg23
I0
sg24
I0
sbssg62
S'\xb0\xc8pN\xaf>\xa0\xbaz\x144\xe0A9\xb8?'
p2152
ssS'en_parser_nltk_lite_corpora'
p2153
(dp2154
g6
(dp2155
g8
S'en_parser_nltk_lite_corpora.html'
p2156
sg10
S'en.parser.nltk_lite.corpora'
p2157
sg12
g13
(g14
g15
NtRp2158
(dp2159
g18
I1
sg19
I0
sg20
I27
sg21
I0
sg22
I0
sg23
I13
sg24
I0
sbssg25
S'\x864J\xcb\xfaN\xf6l\xeb\xc6\x14\x08u7\xae\x8f'
p2160
ssS'fuzzy_adventure_external_en_parser_nltk_lite_tokenize'
p2161
(dp2162
g6
(dp2163
g8
S'fuzzy_adventure_external_en_parser_nltk_lite_tokenize.html'
p2164
sg10
S'fuzzy_adventure.external.en.parser.nltk_lite.tokenize'
p2165
sg12
g13
(g14
g15
NtRp2166
(dp2167
g18
I1
sg19
I0
sg20
I3
sg21
I0
sg22
I0
sg23
I0
sg24
I0
sbssg25
S'\xc4Q\x91\xf0\xe3s4\xc8\x8f\xc0\x84\x94Z\x93\xf9 '
p2168
ssS'email_mime_multipart'
p2169
(dp2170
g53
(dp2171
g55
S'email_mime_multipart.html'
p2172
sg57
S'email.mime.multipart'
p2173
sg59
g13
(g14
g15
NtRp2174
(dp2175
g18
I1
sg19
I0
sg20
I12
sg21
I0
sg22
I0
sg23
I12
sg24
I0
sbssg62
S'\xa6q\xc9\x84\xda\xca}!(\x01\x17\x94\xa5\xda\x07\xb3'
p2176
ssS'numpy_lib_twodim_base'
p2177
(dp2178
g6
(dp2179
g8
S'numpy_lib_twodim_base.html'
p2180
sg10
S'numpy.lib.twodim_base'
p2181
sg12
g13
(g14
g15
NtRp2182
(dp2183
g18
I1
sg19
I0
sg20
I122
sg21
I0
sg22
I0
sg23
I104
sg24
I0
sbssg25
S'^Vq\x08\x1a\xf3\x04\x8cYP\xe90ul\x80X'
p2184
ssS'numpy_core_numeric'
p2185
(dp2186
g6
(dp2187
g8
S'numpy_core_numeric.html'
p2188
sg10
S'numpy.core.numeric'
p2189
sg12
g13
(g14
g15
NtRp2190
(dp2191
g18
I1
sg19
I0
sg20
I481
sg21
I0
sg22
I0
sg23
I330
sg24
I0
sbssg25
S'\x8a\xb7\x87\xccO\xa7\xbbP\xfd^:\xc1q\xdf@\x00'
p2192
ssS'email_mime_image'
p2193
(dp2194
g53
(dp2195
g55
S'email_mime_image.html'
p2196
sg57
S'email.mime.image'
p2197
sg59
g13
(g14
g15
NtRp2198
(dp2199
g18
I1
sg19
I0
sg20
I14
sg21
I0
sg22
I0
sg23
I14
sg24
I0
sbssg62
S'\xd0\xc4\xf5\x15\xb4N#\x94^\xb1\xbd\xab{\xa2C('
p2200
ssS'fuzzy_adventure_external_en_rid'
p2201
(dp2202
g6
(dp2203
g8
S'fuzzy_adventure_external_en_rid.html'
p2204
sg10
S'fuzzy_adventure.external.en.rid'
p2205
sg12
g13
(g14
g15
NtRp2206
(dp2207
g18
I1
sg19
I0
sg20
I376
sg21
I0
sg22
I0
sg23
I241
sg24
I0
sbssg25
S'\xfa\x80wh\x8f\x1foe\xa1\xb9\xcf\xc7T?:\x84'
p2208
ssS'numpy_core_function_base'
p2209
(dp2210
g6
(dp2211
g8
S'numpy_core_function_base.html'
p2212
sg10
S'numpy.core.function_base'
p2213
sg12
g13
(g14
g15
NtRp2214
(dp2215
g18
I1
sg19
I0
sg20
I21
sg21
I0
sg22
I0
sg23
I16
sg24
I0
sbssg25
S']\xd1\xa7\xceS\xac\xc8\x98\x8cR\xf1\xff\x0c\x90S\xf7'
p2216
ssS'_usr_local_lib_python2_7_dist-packages_nose_plugins_logcapture'
p2217
(dp2218
g122
(dp2219
g124
S'_usr_local_lib_python2_7_dist-packages_nose_plugins_logcapture.html'
p2220
sg126
S'/usr/local/lib/python2.7/dist-packages/nose/plugins/logcapture'
p2221
sg128
g13
(g14
g15
NtRp2222
(dp2223
g18
I1
sg19
I0
sg20
I125
sg21
I0
sg22
I0
sg23
I110
sg24
I0
sbssg131
S'4\xda\xcdW:_b\x9d\xc9\xb5\x95:A\xa4\xae\xfe'
p2224
ssS'numpy_core_numerictypes'
p2225
(dp2226
g6
(dp2227
g8
S'numpy_core_numerictypes.html'
p2228
sg10
S'numpy.core.numerictypes'
p2229
sg12
g13
(g14
g15
NtRp2230
(dp2231
g18
I1
sg19
I0
sg20
I376
sg21
I0
sg22
I0
sg23
I122
sg24
I0
sbssg25
S'4\x96T\xc5!@\xfcq\x02-\xce\x9b6\x96C\xcc'
p2232
ssS'quopri'
p2233
(dp2234
g53
(dp2235
g55
S'quopri.html'
p2236
sg57
g2233
sg59
g13
(g14
g15
NtRp2237
(dp2238
g18
I1
sg19
I0
sg20
I162
sg21
I0
sg22
I0
sg23
I162
sg24
I0
sbssg62
S"\x91\xbapO4\x97)\x84\xfc\x15\x05\x9f\x81\xb7'\xff"
p2239
ssS'json_scanner'
p2240
(dp2241
g436
(dp2242
g438
S'json_scanner.html'
p2243
sg440
S'json.scanner'
p2244
sg442
g13
(g14
g15
NtRp2245
(dp2246
g18
I1
sg19
I0
sg20
I52
sg21
I0
sg22
I0
sg23
I52
sg24
I0
sbssg445
S'$\xcb\xac\xc2\x18\x18\xa3\x18a\xf17\x99\xb4\xc6_e'
p2247
ssS'fuzzy_adventure_external_en_parser_nltk_lite_draw_tree'
p2248
(dp2249
g6
(dp2250
g8
S'fuzzy_adventure_external_en_parser_nltk_lite_draw_tree.html'
p2251
sg10
S'fuzzy_adventure.external.en.parser.nltk_lite.draw.tree'
p2252
sg12
g13
(g14
g15
NtRp2253
(dp2254
g18
I1
sg19
I0
sg20
I560
sg21
I0
sg22
I0
sg23
I505
sg24
I0
sbssg25
S'px\xa5Z\xe5\xf2\xb8\xa9\x0e\x18U\xbf\x9a\xde_\xa6'
p2255
ssS'fuzzy_adventure_database_transactions'
p2256
(dp2257
g53
(dp2258
g55
S'fuzzy_adventure_database_transactions.html'
p2259
sg57
S'fuzzy_adventure.database.transactions'
p2260
sg59
g13
(g14
g15
NtRp2261
(dp2262
g18
I1
sg19
I0
sg20
I0
sg21
I0
sg22
I0
sg23
I0
sg24
I0
sbssg62
S'\xb0\xc8pN\xaf>\xa0\xbaz\x144\xe0A9\xb8?'
p2263
ssS'en_commonsense'
p2264
(dp2265
g6
(dp2266
g8
S'en_commonsense.html'
p2267
sg10
S'en.commonsense'
p2268
sg12
g13
(g14
g15
NtRp2269
(dp2270
g18
I1
sg19
I0
sg20
I96
sg21
I0
sg22
I0
sg23
I78
sg24
I0
sbssg25
S'\t\x14\x9b\xbbr}\x85\xecry\x91\x15\x80C"\x1c'
p2271
ssS'en_parser_nltk_lite_cluster_gaac'
p2272
(dp2273
g6
(dp2274
g8
S'en_parser_nltk_lite_cluster_gaac.html'
p2275
sg10
S'en.parser.nltk_lite.cluster.gaac'
p2276
sg12
g13
(g14
g15
NtRp2277
(dp2278
g18
I1
sg19
I0
sg20
I78
sg21
I0
sg22
I0
sg23
I65
sg24
I0
sbssg25
S'\xe6\xe5\xbc\xdd\x90m\x86\x8dnT\xc5\xc2\x80\x05\xe3S'
p2279
ssS'pytz_tzinfo'
p2280
(dp2281
g53
(dp2282
g55
S'pytz_tzinfo.html'
p2283
sg57
S'pytz.tzinfo'
p2284
sg59
g13
(g14
g15
NtRp2285
(dp2286
g18
I1
sg19
I0
sg20
I157
sg21
I0
sg22
I0
sg23
I103
sg24
I0
sbssg62
S'\x1aXT}\xe6\xd2\xb5$\xbe\xed3z\xf6\xf9o-'
p2287
ssS'fuzzy_adventure_external_en_parser_nltk_lite_parse_chunk'
p2288
(dp2289
g6
(dp2290
g8
S'fuzzy_adventure_external_en_parser_nltk_lite_parse_chunk.html'
p2291
sg10
S'fuzzy_adventure.external.en.parser.nltk_lite.parse.chunk'
p2292
sg12
g13
(g14
g15
NtRp2293
(dp2294
g18
I1
sg19
I0
sg20
I375
sg21
I0
sg22
I0
sg23
I292
sg24
I0
sbssg25
S'~\xd2\x1d\x15\x81=Zk\xae\x8f\xec9\x91\xd7\x9c\xe8'
p2295
ssS'numpy_lib__datasource'
p2296
(dp2297
g6
(dp2298
g8
S'numpy_lib__datasource.html'
p2299
sg10
S'numpy.lib._datasource'
p2300
sg12
g13
(g14
g15
NtRp2301
(dp2302
g18
I1
sg19
I0
sg20
I164
sg21
I0
sg22
I0
sg23
I128
sg24
I0
sbssg25
S'\xdf\xe2P\xa7\xe8\x87\x1c\x08\xc1\xc9ru\x11\xd7\xad\xe5'
p2303
ssS'en_parser_nltk_lite_tokenize_regexp'
p2304
(dp2305
g6
(dp2306
g8
S'en_parser_nltk_lite_tokenize_regexp.html'
p2307
sg10
S'en.parser.nltk_lite.tokenize.regexp'
p2308
sg12
g13
(g14
g15
NtRp2309
(dp2310
g18
I1
sg19
I0
sg20
I107
sg21
I0
sg22
I0
sg23
I86
sg24
I0
sbssg25
S'\xfc\xd4\xb1yX\xc7zzD\xf6\x88CE\xf8J\xed'
p2311
ssS'fuzzy_adventure_external_en_parser_nltk_lite_parse'
p2312
(dp2313
g6
(dp2314
g8
S'fuzzy_adventure_external_en_parser_nltk_lite_parse.html'
p2315
sg10
S'fuzzy_adventure.external.en.parser.nltk_lite.parse'
p2316
sg12
g13
(g14
g15
NtRp2317
(dp2318
g18
I1
sg19
I0
sg20
I33
sg21
I0
sg22
I0
sg23
I11
sg24
I0
sbssg25
S'\x1e\xf2eb\xb3ue\xf7)\x85\xc4\xdbY\xb3*P'
p2319
ssS'numpy_core_machar'
p2320
(dp2321
g6
(dp2322
g8
S'numpy_core_machar.html'
p2323
sg10
S'numpy.core.machar'
p2324
sg12
g13
(g14
g15
NtRp2325
(dp2326
g18
I1
sg19
I0
sg20
I187
sg21
I0
sg22
I0
sg23
I179
sg24
I0
sbssg25
S'\x85\xc9l\xc7\xaf\xa6\xc1a\x0e\x14\xdc\x0b[V\xad\xd4'
p2327
ssS'cgi'
p2328
(dp2329
g53
(dp2330
g55
S'cgi.html'
p2331
sg57
g2328
sg59
g13
(g14
g15
NtRp2332
(dp2333
g18
I1
sg19
I0
sg20
I578
sg21
I0
sg22
I0
sg23
I578
sg24
I0
sbssg62
S'\xf3\xb2\xa5\x15L\xb1\xcf\x8f>\x93\x19\x12\xfe\xf0\xb2\x17'
p2334
ssS'fuzzy_adventure_external_en_parser_nltk_lite_contrib_toolbox_data'
p2335
(dp2336
g6
(dp2337
g8
S'fuzzy_adventure_external_en_parser_nltk_lite_contrib_toolbox_data.html'
p2338
sg10
S'fuzzy_adventure.external.en.parser.nltk_lite.contrib.toolbox.data'
p2339
sg12
g13
(g14
g15
NtRp2340
(dp2341
g18
I1
sg19
I0
sg20
I87
sg21
I0
sg22
I0
sg23
I77
sg24
I0
sbssg25
S'\x9aHX\xc3\xf7\xb1\t\xd1\x19jn\xd3\x05a\xea\x7f'
p2342
ssS'django_utils'
p2343
(dp2344
g53
(dp2345
g55
S'django_utils.html'
p2346
sg57
S'django.utils'
p2347
sg59
g13
(g14
g15
NtRp2348
(dp2349
g18
I1
sg19
I0
sg20
I0
sg21
I0
sg22
I0
sg23
I0
sg24
I0
sbssg62
S'\xb0\xc8pN\xaf>\xa0\xbaz\x144\xe0A9\xb8?'
p2350
ssS'fuzzy_adventure_external_en_wordnet_wntools'
p2351
(dp2352
g6
(dp2353
g8
S'fuzzy_adventure_external_en_wordnet_wntools.html'
p2354
sg10
S'fuzzy_adventure.external.en.wordnet.wntools'
p2355
sg12
g13
(g14
g15
NtRp2356
(dp2357
g18
I1
sg19
I0
sg20
I115
sg21
I0
sg22
I0
sg23
I91
sg24
I0
sbssg25
S'\xef\xde\x14AC\xb6\xb0\x90\x1c\x01K\x80D\x10\xdf\xe2'
p2358
ssS'numpy___config__'
p2359
(dp2360
g6
(dp2361
g8
S'numpy___config__.html'
p2362
sg10
S'numpy.__config__'
p2363
sg12
g13
(g14
g15
NtRp2364
(dp2365
g18
I1
sg19
I0
sg20
I26
sg21
I0
sg22
I0
sg23
I12
sg24
I0
sbssg25
S',\x81\xe4h%\x9f\xe9K\xb3\x9e\xd3\xa4\x97\xfa\x83\x7f'
p2366
ssS'numpy_polynomial_hermite'
p2367
(dp2368
g6
(dp2369
g8
S'numpy_polynomial_hermite.html'
p2370
sg10
S'numpy.polynomial.hermite'
p2371
sg12
g13
(g14
g15
NtRp2372
(dp2373
g18
I1
sg19
I0
sg20
I284
sg21
I0
sg22
I0
sg23
I254
sg24
I0
sbssg25
S'\xf5\x85-lP\xdf^\xf4[\x88\xc3\x07\xdeg\xf7\xac'
p2374
ssS'email_encoders'
p2375
(dp2376
g53
(dp2377
g55
S'email_encoders.html'
p2378
sg57
S'email.encoders'
p2379
sg59
g13
(g14
g15
NtRp2380
(dp2381
g18
I1
sg19
I0
sg20
I36
sg21
I0
sg22
I0
sg23
I36
sg24
I0
sbssg62
S'\x9b\x93\x96\xfeCq\x9e\xb3\xb9\x1a\xb6\x0bXC\xde\xc6'
p2382
ssS'en_parser_nltk_lite_cluster'
p2383
(dp2384
g6
(dp2385
g8
S'en_parser_nltk_lite_cluster.html'
p2386
sg10
S'en.parser.nltk_lite.cluster'
p2387
sg12
g13
(g14
g15
NtRp2388
(dp2389
g18
I1
sg19
I0
sg20
I174
sg21
I0
sg22
I0
sg23
I139
sg24
I0
sbssg25
S'r`Ew\xd3\xb4\x0b\x01\xcc(#\xf0.\xfe\x03\x7f'
p2390
ssS'_usr_local_lib_python2_7_dist-packages_nose_plugins_cover'
p2391
(dp2392
g122
(dp2393
g124
S'_usr_local_lib_python2_7_dist-packages_nose_plugins_cover.html'
p2394
sg126
S'/usr/local/lib/python2.7/dist-packages/nose/plugins/cover'
p2395
sg128
g13
(g14
g15
NtRp2396
(dp2397
g18
I1
sg19
I0
sg20
I138
sg21
I0
sg22
I0
sg23
I136
sg24
I0
sbssg131
S'kE\xfe\xcc\xf7\xf0m\x05K\xf4\x88\xb1\x17\xc90\xae'
p2398
ssS'en_parser_nltk_lite_parse_rd'
p2399
(dp2400
g6
(dp2401
g8
S'en_parser_nltk_lite_parse_rd.html'
p2402
sg10
S'en.parser.nltk_lite.parse.rd'
p2403
sg12
g13
(g14
g15
NtRp2404
(dp2405
g18
I1
sg19
I0
sg20
I214
sg21
I0
sg22
I0
sg23
I173
sg24
I0
sbssg25
S'\xc6d\xac\xcb\xdaD>o\x7fsL\xb3:}\x85L'
p2406
ssS'fuzzy_adventure_external_en_parser_nltk_lite_parse_chart'
p2407
(dp2408
g6
(dp2409
g8
S'fuzzy_adventure_external_en_parser_nltk_lite_parse_chart.html'
p2410
sg10
S'fuzzy_adventure.external.en.parser.nltk_lite.parse.chart'
p2411
sg12
g13
(g14
g15
NtRp2412
(dp2413
g18
I1
sg19
I0
sg20
I589
sg21
I0
sg22
I0
sg23
I430
sg24
I0
sbssg25
S'\xa1\x83\\eS&\x0bb\xee\xb0\x9dj]DD\xe3'
p2414
ssS'django_template_context'
p2415
(dp2416
g53
(dp2417
g55
S'django_template_context.html'
p2418
sg57
S'django.template.context'
p2419
sg59
g13
(g14
g15
NtRp2420
(dp2421
g18
I1
sg19
I0
sg20
I111
sg21
I0
sg22
I0
sg23
I78
sg24
I0
sbssg62
S"\x9b\xe5\x82$\xa9\x97\xdeD\x9f'6\n\xa2\xdcU\xb5"
p2422
ssS'fuzzy_adventure_external_en_parser_nltk_lite_tag_unigram'
p2423
(dp2424
g6
(dp2425
g8
S'fuzzy_adventure_external_en_parser_nltk_lite_tag_unigram.html'
p2426
sg10
S'fuzzy_adventure.external.en.parser.nltk_lite.tag.unigram'
p2427
sg12
g13
(g14
g15
NtRp2428
(dp2429
g18
I1
sg19
I0
sg20
I160
sg21
I0
sg22
I0
sg23
I132
sg24
I0
sbssg25
S"\xe1'\x1b\xfe\xe5\xa8\x9c\xee\x08a\xe0\xdf\xf37\x7f\r"
p2430
ssS'fuzzy_adventure_external_en_parser_nltk_lite_misc'
p2431
(dp2432
g6
(dp2433
g8
S'fuzzy_adventure_external_en_parser_nltk_lite_misc.html'
p2434
sg10
S'fuzzy_adventure.external.en.parser.nltk_lite.misc'
p2435
sg12
g13
(g14
g15
NtRp2436
(dp2437
g18
I1
sg19
I0
sg20
I0
sg21
I0
sg22
I0
sg23
I0
sg24
I0
sbssg25
S'\xe0\xcc\xc0\xa7\xa9\xd1R\xb7\xe6^NE\n\x96:\xa8'
p2438
ssS'en_parser_nltk_lite_parse_pcfg'
p2439
(dp2440
g6
(dp2441
g8
S'en_parser_nltk_lite_parse_pcfg.html'
p2442
sg10
S'en.parser.nltk_lite.parse.pcfg'
p2443
sg12
g13
(g14
g15
NtRp2444
(dp2445
g18
I1
sg19
I0
sg20
I68
sg21
I0
sg22
I0
sg23
I42
sg24
I0
sbssg25
S'\x14~\xaf\x1f\xf7\x9dF\x80\x9f\x0cF\xc3\xdd\r\xfct'
p2446
ssS'en_parser_nltk_lite_parse_cfg'
p2447
(dp2448
g6
(dp2449
g8
S'en_parser_nltk_lite_parse_cfg.html'
p2450
sg10
S'en.parser.nltk_lite.parse.cfg'
p2451
sg12
g13
(g14
g15
NtRp2452
(dp2453
g18
I1
sg19
I0
sg20
I133
sg21
I0
sg22
I0
sg23
I76
sg24
I0
sbssg25
S'\'\xed\x14<U\xd3t\'\x97R\xd9"\xf2\x11\xc1\xd4'
p2454
ssS'numpy_lib_scimath'
p2455
(dp2456
g6
(dp2457
g8
S'numpy_lib_scimath.html'
p2458
sg10
S'numpy.lib.scimath'
p2459
sg12
g13
(g14
g15
NtRp2460
(dp2461
g18
I1
sg19
I0
sg20
I54
sg21
I0
sg22
I0
sg23
I35
sg24
I0
sbssg25
S'3$\xd0\xac5\x07O\x8f6\xc8\xc7\x91\xd9\xe5\xdf\xa5'
p2462
ssS'numpy_core_memmap'
p2463
(dp2464
g6
(dp2465
g8
S'numpy_core_memmap.html'
p2466
sg10
S'numpy.core.memmap'
p2467
sg12
g13
(g14
g15
NtRp2468
(dp2469
g18
I1
sg19
I0
sg20
I87
sg21
I0
sg22
I0
sg23
I71
sg24
I0
sbssg25
S'\xcc%\x0e\x88\x80\xeb\x00\xff\xc2\xa0[;<\x8d\x9a$'
p2470
ssS'Cookie'
p2471
(dp2472
g53
(dp2473
g55
S'Cookie.html'
p2474
sg57
g2471
sg59
g13
(g14
g15
NtRp2475
(dp2476
g18
I1
sg19
I0
sg20
I201
sg21
I0
sg22
I0
sg23
I201
sg24
I0
sbssg62
S'b|g-hn\xc6\xbe\xe4Kw\x8en\xa3xE'
p2477
ssS'django_utils_translation'
p2478
(dp2479
g53
(dp2480
g55
S'django_utils_translation.html'
p2481
sg57
S'django.utils.translation'
p2482
sg59
g13
(g14
g15
NtRp2483
(dp2484
g18
I1
sg19
I0
sg20
I86
sg21
I0
sg22
I0
sg23
I45
sg24
I0
sbssg62
S'\xf6\xbe\xc12\xff\x18\x1b\n\xab"\xcfn\x7f\x9b3\xc3'
p2485
ssS'simplejson'
p2486
(dp2487
g53
(dp2488
g55
S'simplejson.html'
p2489
sg57
g2486
sg59
g13
(g14
g15
NtRp2490
(dp2491
g18
I1
sg19
I0
sg20
I75
sg21
I0
sg22
I0
sg23
I56
sg24
I0
sbssg62
S'\xb1<5\xfe\xf8\x85\xcfi\x17r\xef\xbb\xf1]\x19\xa7'
p2492
ssS'logging_handlers'
p2493
(dp2494
g53
(dp2495
g55
S'logging_handlers.html'
p2496
sg57
S'logging.handlers'
p2497
sg59
g13
(g14
g15
NtRp2498
(dp2499
g18
I1
sg19
I0
sg20
I530
sg21
I0
sg22
I0
sg23
I530
sg24
I0
sbssg62
S'\xd3\x9d&\xfcL\xb03\x9d\xb4\xc6\xb7\x16\x9cT\x80\xc8'
p2500
ssS'numpy_lib_info'
p2501
(dp2502
g6
(dp2503
g8
S'numpy_lib_info.html'
p2504
sg10
S'numpy.lib.info'
p2505
sg12
g13
(g14
g15
NtRp2506
(dp2507
g18
I1
sg19
I0
sg20
I2
sg21
I0
sg22
I0
sg23
I0
sg24
I0
sbssg25
S'\x1f\xf8F\x0c^i4\xd74G+a\xe4\x87\xb4\xd3'
p2508
ssS'django_utils_encoding'
p2509
(dp2510
g53
(dp2511
g55
S'django_utils_encoding.html'
p2512
sg57
S'django.utils.encoding'
p2513
sg59
g13
(g14
g15
NtRp2514
(dp2515
g18
I1
sg19
I0
sg20
I82
sg21
I0
sg22
I0
sg23
I57
sg24
I0
sbssg62
S'{\xb6N`\xb7f\xf4ZmB\xdf\xec\x00r\x97\xe6'
p2516
ssS'_usr_local_lib_python2_7_dist-packages_nose_plugins_manager'
p2517
(dp2518
g122
(dp2519
g124
S'_usr_local_lib_python2_7_dist-packages_nose_plugins_manager.html'
p2520
sg126
S'/usr/local/lib/python2.7/dist-packages/nose/plugins/manager'
p2521
sg128
g13
(g14
g15
NtRp2522
(dp2523
g18
I1
sg19
I0
sg20
I265
sg21
I0
sg22
I0
sg23
I219
sg24
I0
sbssg131
S'\x02"\x86\x99\xa6\xb8cKEV\xf5\xa7\x0cP\xe3-'
p2524
ssS'en_parser_nltk_lite_parse'
p2525
(dp2526
g6
(dp2527
g8
S'en_parser_nltk_lite_parse.html'
p2528
sg10
S'en.parser.nltk_lite.parse'
p2529
sg12
g13
(g14
g15
NtRp2530
(dp2531
g18
I1
sg19
I0
sg20
I33
sg21
I0
sg22
I0
sg23
I11
sg24
I0
sbssg25
S'\x1e\xf2eb\xb3ue\xf7)\x85\xc4\xdbY\xb3*P'
p2532
ssS'numpy_core'
p2533
(dp2534
g6
(dp2535
g8
S'numpy_core.html'
p2536
sg10
S'numpy.core'
p2537
sg12
g13
(g14
g15
NtRp2538
(dp2539
g18
I1
sg19
I0
sg20
I35
sg21
I0
sg22
I0
sg23
I0
sg24
I0
sbssg25
S'N0\x94RX\xdc\xb3-\xa8\xa6\xee\xa2\xa4\xe9\x94\xb3'
p2540
ssS'_usr_local_lib_python2_7_dist-packages_nose_util'
p2541
(dp2542
g122
(dp2543
g124
S'_usr_local_lib_python2_7_dist-packages_nose_util.html'
p2544
sg126
S'/usr/local/lib/python2.7/dist-packages/nose/util'
p2545
sg128
g13
(g14
g15
NtRp2546
(dp2547
g18
I1
sg19
I0
sg20
I341
sg21
I0
sg22
I0
sg23
I302
sg24
I0
sbssg131
S'w\x17\x89\xf7\xea#\x12Y\xc36\xf1&;\xe5~\x1a'
p2548
ssS'fuzzy_adventure_external_en_parser_nltk_lite_corpora'
p2549
(dp2550
g6
(dp2551
g8
S'fuzzy_adventure_external_en_parser_nltk_lite_corpora.html'
p2552
sg10
S'fuzzy_adventure.external.en.parser.nltk_lite.corpora'
p2553
sg12
g13
(g14
g15
NtRp2554
(dp2555
g18
I1
sg19
I0
sg20
I27
sg21
I0
sg22
I0
sg23
I13
sg24
I0
sbssg25
S'\x864J\xcb\xfaN\xf6l\xeb\xc6\x14\x08u7\xae\x8f'
p2556
ssS'uu'
p2557
(dp2558
g53
(dp2559
g55
S'uu.html'
p2560
sg57
g2557
sg59
g13
(g14
g15
NtRp2561
(dp2562
g18
I1
sg19
I0
sg20
I121
sg21
I0
sg22
I0
sg23
I121
sg24
I0
sbssg62
S'R\xc9\x07\xfa_\x8d%\xd7\x89=ru\xb4\xa4";'
p2563
ssS'fuzzy_adventure_external_en_numeral'
p2564
(dp2565
g6
(dp2566
g8
S'fuzzy_adventure_external_en_numeral.html'
p2567
sg10
S'fuzzy_adventure.external.en.numeral'
p2568
sg12
g13
(g14
g15
NtRp2569
(dp2570
g18
I1
sg19
I0
sg20
I58
sg21
I0
sg22
I0
sg23
I48
sg24
I0
sbssg25
S'\xe4\xc7\xe2#\xe7\x0ea\xf7P\xdc\xf1\xe5\xe7\x0e9p'
p2571
ssS'fuzzy_adventure_context_based_data'
p2572
(dp2573
g436
(dp2574
g438
S'fuzzy_adventure_context_based_data.html'
p2575
sg440
S'fuzzy_adventure.context_based_data'
p2576
sg442
g13
(g14
g15
NtRp2577
(dp2578
g18
I1
sg19
I0
sg20
I0
sg21
I0
sg22
I0
sg23
I0
sg24
I0
sbssg445
S'\xb0\xc8pN\xaf>\xa0\xbaz\x144\xe0A9\xb8?'
p2579
ssS'en_parser_nltk_lite_draw_cfg'
p2580
(dp2581
g6
(dp2582
g8
S'en_parser_nltk_lite_draw_cfg.html'
p2583
sg10
S'en.parser.nltk_lite.draw.cfg'
p2584
sg12
g13
(g14
g15
NtRp2585
(dp2586
g18
I1
sg19
I0
sg20
I349
sg21
I0
sg22
I0
sg23
I293
sg24
I0
sbssg25
S'\xa9\x0b\x0b\xf6\\\x90\x82=\x06;\x8e\x084g\x93\n'
p2587
ssS'fuzzy_adventure_external_en_parser_nltk_lite_tag_brill'
p2588
(dp2589
g6
(dp2590
g8
S'fuzzy_adventure_external_en_parser_nltk_lite_tag_brill.html'
p2591
sg10
S'fuzzy_adventure.external.en.parser.nltk_lite.tag.brill'
p2592
sg12
g13
(g14
g15
NtRp2593
(dp2594
g18
I1
sg19
I0
sg20
I416
sg21
I0
sg22
I0
sg23
I348
sg24
I0
sbssg25
S"\xa0\xc1\x04\xe2\xe6\x91|@`'F\xec\xd9\xc3^6"
p2595
ssS'email_charset'
p2596
(dp2597
g53
(dp2598
g55
S'email_charset.html'
p2599
sg57
S'email.charset'
p2600
sg59
g13
(g14
g15
NtRp2601
(dp2602
g18
I1
sg19
I0
sg20
I116
sg21
I0
sg22
I0
sg23
I116
sg24
I0
sbssg62
S'\x87\x18\xbb\x9bdt\xc5\x9d\xd6I?MGg\x02\x89'
p2603
ssS'mimetools'
p2604
(dp2605
g53
(dp2606
g55
S'mimetools.html'
p2607
sg57
g2604
sg59
g13
(g14
g15
NtRp2608
(dp2609
g18
I1
sg19
I0
sg20
I162
sg21
I0
sg22
I0
sg23
I162
sg24
I0
sbssg62
S'Q\xc4\x87;\xab\x076\x8f\xa2\x14\x8a\x94\xa8{I}'
p2610
ssS'django_utils_numberformat'
p2611
(dp2612
g53
(dp2613
g55
S'django_utils_numberformat.html'
p2614
sg57
S'django.utils.numberformat'
p2615
sg59
g13
(g14
g15
NtRp2616
(dp2617
g18
I1
sg19
I0
sg20
I31
sg21
I0
sg22
I0
sg23
I28
sg24
I0
sbssg62
S't\x93m\x81b\xf9\x03K\xc5\xb4a\xde\xfff \xd7'
p2618
ssS'fuzzy_adventure_analytics'
p2619
(dp2620
g436
(dp2621
g438
S'fuzzy_adventure_analytics.html'
p2622
sg440
S'fuzzy_adventure.analytics'
p2623
sg442
g13
(g14
g15
NtRp2624
(dp2625
g18
I1
sg19
I0
sg20
I0
sg21
I0
sg22
I0
sg23
I0
sg24
I0
sbssg445
S'\xb0\xc8pN\xaf>\xa0\xbaz\x144\xe0A9\xb8?'
p2626
ssS'fuzzy_adventure_external_en_parser_nltk_lite_cluster_gaac'
p2627
(dp2628
g6
(dp2629
g8
S'fuzzy_adventure_external_en_parser_nltk_lite_cluster_gaac.html'
p2630
sg10
S'fuzzy_adventure.external.en.parser.nltk_lite.cluster.gaac'
p2631
sg12
g13
(g14
g15
NtRp2632
(dp2633
g18
I1
sg19
I0
sg20
I78
sg21
I0
sg22
I0
sg23
I65
sg24
I0
sbssg25
S'\xe6\xe5\xbc\xdd\x90m\x86\x8dnT\xc5\xc2\x80\x05\xe3S'
p2634
ssS'django_utils_functional'
p2635
(dp2636
g53
(dp2637
g55
S'django_utils_functional.html'
p2638
sg57
S'django.utils.functional'
p2639
sg59
g13
(g14
g15
NtRp2640
(dp2641
g18
I1
sg19
I0
sg20
I168
sg21
I0
sg22
I0
sg23
I80
sg24
I0
sbssg62
S'\x15\xe7\x8bW\xebS\xd3\x10yN\xddn\xed\xdd\xbb\xdc'
p2642
ssS'django_core_signing'
p2643
(dp2644
g53
(dp2645
g55
S'django_core_signing.html'
p2646
sg57
S'django.core.signing'
p2647
sg59
g13
(g14
g15
NtRp2648
(dp2649
g18
I1
sg19
I0
sg20
I92
sg21
I0
sg22
I0
sg23
I61
sg24
I0
sbssg62
S'\xb7\x1bS\x13Q\xb4\xf5k\x90\xf7hKv\xf0\xb8\x87'
p2650
ssS'en_verb'
p2651
(dp2652
g6
(dp2653
g8
S'en_verb.html'
p2654
sg10
S'en.verb'
p2655
sg12
g13
(g14
g15
NtRp2656
(dp2657
g18
I1
sg19
I0
sg20
I86
sg21
I0
sg22
I0
sg23
I59
sg24
I0
sbssg25
S'\xe7\x05\xec\xb2A\x0c\x02\xf0\x94\x06 \xe2\xd5%\xc8\x1c'
p2658
ssS'tkCommonDialog'
p2659
(dp2660
g6
(dp2661
g8
S'tkCommonDialog.html'
p2662
sg10
g2659
sg12
g13
(g14
g15
NtRp2663
(dp2664
g18
I1
sg19
I0
sg20
I27
sg21
I0
sg22
I0
sg23
I27
sg24
I0
sbssg25
S'\x83\xc5XA\xea\x0e\x11\r^\xf1N\x88.EI\x1c'
p2665
ssS'fuzzy_adventure_external_en_commonsense'
p2666
(dp2667
g6
(dp2668
g8
S'fuzzy_adventure_external_en_commonsense.html'
p2669
sg10
S'fuzzy_adventure.external.en.commonsense'
p2670
sg12
g13
(g14
g15
NtRp2671
(dp2672
g18
I1
sg19
I0
sg20
I96
sg21
I0
sg22
I0
sg23
I78
sg24
I0
sbssg25
S'\t\x14\x9b\xbbr}\x85\xecry\x91\x15\x80C"\x1c'
p2673
ssS'numpy_lib_format'
p2674
(dp2675
g6
(dp2676
g8
S'numpy_lib_format.html'
p2677
sg10
S'numpy.lib.format'
p2678
sg12
g13
(g14
g15
NtRp2679
(dp2680
g18
I1
sg19
I0
sg20
I163
sg21
I0
sg22
I0
sg23
I147
sg24
I0
sbssg25
S"\x16\xe7Xk'\x99\xc6\x90\xeeUX\xb8\xa8\xb6A>"
p2681
ssS'django_utils_itercompat'
p2682
(dp2683
g53
(dp2684
g55
S'django_utils_itercompat.html'
p2685
sg57
S'django.utils.itercompat'
p2686
sg59
g13
(g14
g15
NtRp2687
(dp2688
g18
I1
sg19
I0
sg20
I24
sg21
I0
sg22
I0
sg23
I15
sg24
I0
sbssg62
S'OXMhC\xbe8\xb9E{b\x17w\xbf\xa2~'
p2689
ssS'numpy_linalg_linalg'
p2690
(dp2691
g6
(dp2692
g8
S'numpy_linalg_linalg.html'
p2693
sg10
S'numpy.linalg.linalg'
p2694
sg12
g13
(g14
g15
NtRp2695
(dp2696
g18
I1
sg19
I0
sg20
I580
sg21
I0
sg22
I0
sg23
I531
sg24
I0
sbssg25
S'\x8a\x87\x85[\x01$\xbc#]B_\xc8u\xd4\xb4\xa1'
p2697
ssS'encodings_ascii'
p2698
(dp2699
g53
(dp2700
g55
S'encodings_ascii.html'
p2701
sg57
S'encodings.ascii'
p2702
sg59
g13
(g14
g15
NtRp2703
(dp2704
g18
I1
sg19
I0
sg20
I19
sg21
I0
sg22
I0
sg23
I19
sg24
I0
sbssg62
S'jq\xb2\x8ds\xb7T\xee\xba\xb3\xb3\x99\x94\xaa\x94\xea'
p2705
ssS'getopt'
p2706
(dp2707
g6
(dp2708
g8
S'getopt.html'
p2709
sg10
g2706
sg12
g13
(g14
g15
NtRp2710
(dp2711
g18
I1
sg19
I0
sg20
I103
sg21
I0
sg22
I0
sg23
I103
sg24
I0
sbssg25
S'\x89\x19Y\x1c\xdf\xf9\xd3\xac\xc3&>\xae\xce0)\xc2'
p2712
ssS'mimetypes'
p2713
(dp2714
g53
(dp2715
g55
S'mimetypes.html'
p2716
sg57
g2713
sg59
g13
(g14
g15
NtRp2717
(dp2718
g18
I1
sg19
I0
sg20
I199
sg21
I0
sg22
I0
sg23
I199
sg24
I0
sbssg62
S'o\x05\x8cjy\x8af\xf3\x87\xab\xa1\x85\xb5\xad\xbfY'
p2719
ssS'en_wordnet_wordnet'
p2720
(dp2721
g6
(dp2722
g8
S'en_wordnet_wordnet.html'
p2723
sg10
S'en.wordnet.wordnet'
p2724
sg12
g13
(g14
g15
NtRp2725
(dp2726
g18
I1
sg19
I0
sg20
I629
sg21
I0
sg22
I0
sg23
I405
sg24
I0
sbssg25
S'$\x01e\x9d\xbey\xcc\xe0\x9d\xf97\xbaJg\x1d\xbe'
p2727
ssS'django_utils_crypto'
p2728
(dp2729
g53
(dp2730
g55
S'django_utils_crypto.html'
p2731
sg57
S'django.utils.crypto'
p2732
sg59
g13
(g14
g15
NtRp2733
(dp2734
g18
I1
sg19
I0
sg20
I68
sg21
I0
sg22
I0
sg23
I48
sg24
I0
sbssg62
S'\xa3\xc5}l\x04ww\x01\xe1\xf0$\xbc\x1dW\xe7\x06'
p2735
ssS'fuzzy_adventure_external_en_parser_nltk_lite_tokenize_simple'
p2736
(dp2737
g6
(dp2738
g8
S'fuzzy_adventure_external_en_parser_nltk_lite_tokenize_simple.html'
p2739
sg10
S'fuzzy_adventure.external.en.parser.nltk_lite.tokenize.simple'
p2740
sg12
g13
(g14
g15
NtRp2741
(dp2742
g18
I1
sg19
I0
sg20
I26
sg21
I0
sg22
I0
sg23
I15
sg24
I0
sbssg25
S')\xd0\\\xe5\x9ej\xc3\x98gp\x87\xba\xc2c\xdf:'
p2743
ssS'django_core_mail_utils'
p2744
(dp2745
g53
(dp2746
g55
S'django_core_mail_utils.html'
p2747
sg57
S'django.core.mail.utils'
p2748
sg59
g13
(g14
g15
NtRp2749
(dp2750
g18
I1
sg19
I0
sg20
I9
sg21
I0
sg22
I0
sg23
I4
sg24
I0
sbssg62
S'q\x8f\x86\xa8\x10\xa1\x04\x98^\x0e\xe8\x93\xb7X\xaan'
p2751
ssS'fuzzy_adventure_external_en_parser_nltk_lite_parse_rd'
p2752
(dp2753
g6
(dp2754
g8
S'fuzzy_adventure_external_en_parser_nltk_lite_parse_rd.html'
p2755
sg10
S'fuzzy_adventure.external.en.parser.nltk_lite.parse.rd'
p2756
sg12
g13
(g14
g15
NtRp2757
(dp2758
g18
I1
sg19
I0
sg20
I214
sg21
I0
sg22
I0
sg23
I173
sg24
I0
sbssg25
S'\xc6d\xac\xcb\xdaD>o\x7fsL\xb3:}\x85L'
p2759
ssS'fuzzy_adventure_external_en_parser_nltk_lite_etree'
p2760
(dp2761
g6
(dp2762
g8
S'fuzzy_adventure_external_en_parser_nltk_lite_etree.html'
p2763
sg10
S'fuzzy_adventure.external.en.parser.nltk_lite.etree'
p2764
sg12
g13
(g14
g15
NtRp2765
(dp2766
g18
I1
sg19
I0
sg20
I0
sg21
I0
sg22
I0
sg23
I0
sg24
I0
sbssg25
S'\xc5\x10\x81_\xd3\xfa\x9d5\x06L\xf9\xfcP\xa9\xd9\x9f'
p2767
ssS'django_template_base'
p2768
(dp2769
g53
(dp2770
g55
S'django_template_base.html'
p2771
sg57
S'django.template.base'
p2772
sg59
g13
(g14
g15
NtRp2773
(dp2774
g18
I1
sg19
I0
sg20
I770
sg21
I0
sg22
I0
sg23
I569
sg24
I0
sbssg62
S"\xc4\x918\xb2V'<\x8bux\x1c@\xb3ca9"
p2775
ssS'django_core_handlers_base'
p2776
(dp2777
g53
(dp2778
g55
S'django_core_handlers_base.html'
p2779
sg57
S'django.core.handlers.base'
p2780
sg59
g13
(g14
g15
NtRp2781
(dp2782
g18
I1
sg19
I0
sg20
I151
sg21
I0
sg22
I0
sg23
I136
sg24
I0
sbssg62
S'\xdad\xee\x14\x17\x9bxc\xbc\xbd@:}Z\x18\xe1'
p2783
ssS'fuzzy_adventure_query_decomposition_nlidb_template_selectors'
p2784
(dp2785
g436
(dp2786
g438
S'fuzzy_adventure_query_decomposition_nlidb_template_selectors.html'
p2787
sg440
S'fuzzy_adventure.query_decomposition.nlidb.template_selectors'
p2788
sg442
g13
(g14
g15
NtRp2789
(dp2790
g18
I1
sg19
I0
sg20
I0
sg21
I0
sg22
I0
sg23
I0
sg24
I0
sbssg445
S'\xb0\xc8pN\xaf>\xa0\xbaz\x144\xe0A9\xb8?'
p2791
ssS'en_parser_nltk_lite_semantics_utilities'
p2792
(dp2793
g6
(dp2794
g8
S'en_parser_nltk_lite_semantics_utilities.html'
p2795
sg10
S'en.parser.nltk_lite.semantics.utilities'
p2796
sg12
g13
(g14
g15
NtRp2797
(dp2798
g18
I1
sg19
I0
sg20
I52
sg21
I0
sg22
I0
sg23
I39
sg24
I0
sbssg25
S'\xd0\x843i\x8dt8\xbc>\x1f\x9d(\xc3xb~'
p2799
ssS'django_utils_timesince'
p2800
(dp2801
g53
(dp2802
g55
S'django_utils_timesince.html'
p2803
sg57
S'django.utils.timesince'
p2804
sg59
g13
(g14
g15
NtRp2805
(dp2806
g18
I1
sg19
I0
sg20
I28
sg21
I0
sg22
I0
sg23
I23
sg24
I0
sbssg62
S'\xfd1-5\xb5\xd0-~\xd5u\xc2\xb4/\xe6"0'
p2807
ssS'email_header'
p2808
(dp2809
g53
(dp2810
g55
S'email_header.html'
p2811
sg57
S'email.header'
p2812
sg59
g13
(g14
g15
NtRp2813
(dp2814
g18
I1
sg19
I0
sg20
I235
sg21
I0
sg22
I0
sg23
I235
sg24
I0
sbssg62
S'\xc5\xbe\xd0\xa6\xbf\xb90`\t\xa6\x06\xa5\x05\x9c\xd4\x7f'
p2815
sssS'version'
p2816
S'3.6'
p2817
sS'settings'
p2818
S'\x0f\xd0JHYv\x01n\xf0\xee\xc3\xb3\xad.\xf1\xae'
p2819
sS'format'
p2820
I1
s.